

Microchip Technology PIC LITE Macro Assembler V1.21 build 54009 
                                                                                               Thu Apr 30 06:51:10 2015

Microchip Technology Omniscient Code Generator (Lite mode) build 54009
     1                           	processor	16F877A
     2                           	opt	pw 120
     3                           	opt	lm
     4                           	psect	idataBANK0,global,class=CODE,delta=2
     5                           	psect	strings,global,class=STRING,delta=2
     6                           	psect	cinit,global,class=CODE,merge=1,delta=2
     7                           	psect	dataBANK0,global,class=BANK0,space=1,delta=1
     8                           	psect	inittext,global,class=CODE,delta=2
     9                           	psect	cstackBANK1,global,class=BANK1,space=1,delta=1
    10                           	psect	cstackCOMMON,global,class=COMMON,space=1,delta=1
    11                           	psect	cstackBANK0,global,class=BANK0,space=1,delta=1
    12                           	psect	maintext,global,class=CODE,split=1,delta=2
    13                           	psect	text1,local,class=CODE,merge=1,delta=2
    14                           	psect	text2,local,class=CODE,merge=1,delta=2
    15                           	psect	text3,local,class=CODE,merge=1,delta=2
    16                           	psect	text4,local,class=CODE,merge=1,delta=2
    17                           	psect	text5,local,class=CODE,merge=1,delta=2
    18                           	psect	text6,local,class=CODE,merge=1,delta=2
    19                           	psect	text7,local,class=CODE,merge=1,delta=2
    20                           	psect	text8,local,class=CODE,merge=1,delta=2
    21                           	psect	intentry,global,class=CODE,delta=2
    22                           	psect	text9,local,class=CODE,merge=1,delta=2
    23                           	psect	text10,local,class=CODE,merge=1,delta=2
    24                           	psect	text11,local,class=CODE,merge=1,delta=2
    25                           	psect	text12,local,class=CODE,merge=1,delta=2
    26                           	psect	text13,local,class=CODE,merge=1,delta=2
    27                           	psect	text14,local,class=CODE,merge=1,delta=2
    28                           	psect	text15,local,class=CODE,merge=1,delta=2
    29                           	psect	text16,local,class=CODE,merge=1,delta=2
    30                           	psect	text17,local,class=CODE,merge=1,delta=2
    31                           	psect	text18,local,class=CODE,merge=1,delta=2
    32                           	psect	text19,local,class=CODE,merge=1,delta=2
    33                           	psect	text20,local,class=CODE,merge=1,delta=2
    34                           	psect	text21,local,class=CODE,merge=1,delta=2
    35                           	psect	text22,local,class=CODE,merge=1,delta=2
    36                           	psect	text23,local,class=CODE,merge=1,delta=2
    37                           	psect	text24,local,class=CODE,merge=1,delta=2
    38                           	psect	text25,local,class=CODE,merge=1,delta=2
    39                           	psect	text26,local,class=CODE,merge=1,delta=2
    40                           	psect	text27,local,class=CODE,merge=1,delta=2
    41                           	psect	text28,local,class=CODE,merge=1,delta=2
    42                           	psect	text29,local,class=CODE,merge=1,delta=2
    43                           	psect	text30,local,class=CODE,merge=1,delta=2
    44                           	psect	text31,local,class=CODE,merge=1,delta=2
    45                           	psect	text32,local,class=CODE,merge=1,delta=2
    46                           	psect	text33,local,class=CODE,merge=1,delta=2
    47                           	psect	text34,local,class=CODE,merge=1,delta=2
    48                           	psect	text35,local,class=CODE,merge=1,delta=2
    49                           	psect	text36,local,class=CODE,merge=1,delta=2
    50                           	psect	text37,local,class=CODE,merge=1,delta=2
    51                           	psect	text38,local,class=CODE,merge=1,delta=2
    52                           	psect	text39,local,class=CODE,merge=1,delta=2
    53                           	psect	text40,local,class=CODE,merge=1,delta=2
    54                           	dabs	1,0x7E,2
    55  0000                     	;# 
    56  0001                     	;# 
    57  0002                     	;# 
    58  0003                     	;# 
    59  0004                     	;# 
    60  0005                     	;# 
    61  0006                     	;# 
    62  0007                     	;# 
    63  0008                     	;# 
    64  0009                     	;# 
    65  000A                     	;# 
    66  000B                     	;# 
    67  000C                     	;# 
    68  000D                     	;# 
    69  000E                     	;# 
    70  000E                     	;# 
    71  000F                     	;# 
    72  0010                     	;# 
    73  0011                     	;# 
    74  0012                     	;# 
    75  0013                     	;# 
    76  0014                     	;# 
    77  0015                     	;# 
    78  0015                     	;# 
    79  0016                     	;# 
    80  0017                     	;# 
    81  0018                     	;# 
    82  0019                     	;# 
    83  001A                     	;# 
    84  001B                     	;# 
    85  001B                     	;# 
    86  001C                     	;# 
    87  001D                     	;# 
    88  001E                     	;# 
    89  001F                     	;# 
    90  0081                     	;# 
    91  0085                     	;# 
    92  0086                     	;# 
    93  0087                     	;# 
    94  0088                     	;# 
    95  0089                     	;# 
    96  008C                     	;# 
    97  008D                     	;# 
    98  008E                     	;# 
    99  0091                     	;# 
   100  0092                     	;# 
   101  0093                     	;# 
   102  0094                     	;# 
   103  0098                     	;# 
   104  0099                     	;# 
   105  009C                     	;# 
   106  009D                     	;# 
   107  009E                     	;# 
   108  009F                     	;# 
   109  010C                     	;# 
   110  010D                     	;# 
   111  010E                     	;# 
   112  010F                     	;# 
   113  018C                     	;# 
   114  018D                     	;# 
   115  0000                     	;# 
   116  0001                     	;# 
   117  0002                     	;# 
   118  0003                     	;# 
   119  0004                     	;# 
   120  0005                     	;# 
   121  0006                     	;# 
   122  0007                     	;# 
   123  0008                     	;# 
   124  0009                     	;# 
   125  000A                     	;# 
   126  000B                     	;# 
   127  000C                     	;# 
   128  000D                     	;# 
   129  000E                     	;# 
   130  000E                     	;# 
   131  000F                     	;# 
   132  0010                     	;# 
   133  0011                     	;# 
   134  0012                     	;# 
   135  0013                     	;# 
   136  0014                     	;# 
   137  0015                     	;# 
   138  0015                     	;# 
   139  0016                     	;# 
   140  0017                     	;# 
   141  0018                     	;# 
   142  0019                     	;# 
   143  001A                     	;# 
   144  001B                     	;# 
   145  001B                     	;# 
   146  001C                     	;# 
   147  001D                     	;# 
   148  001E                     	;# 
   149  001F                     	;# 
   150  0081                     	;# 
   151  0085                     	;# 
   152  0086                     	;# 
   153  0087                     	;# 
   154  0088                     	;# 
   155  0089                     	;# 
   156  008C                     	;# 
   157  008D                     	;# 
   158  008E                     	;# 
   159  0091                     	;# 
   160  0092                     	;# 
   161  0093                     	;# 
   162  0094                     	;# 
   163  0098                     	;# 
   164  0099                     	;# 
   165  009C                     	;# 
   166  009D                     	;# 
   167  009E                     	;# 
   168  009F                     	;# 
   169  010C                     	;# 
   170  010D                     	;# 
   171  010E                     	;# 
   172  010F                     	;# 
   173  018C                     	;# 
   174  018D                     	;# 
   175  0000                     	;# 
   176  0001                     	;# 
   177  0002                     	;# 
   178  0003                     	;# 
   179  0004                     	;# 
   180  0005                     	;# 
   181  0006                     	;# 
   182  0007                     	;# 
   183  0008                     	;# 
   184  0009                     	;# 
   185  000A                     	;# 
   186  000B                     	;# 
   187  000C                     	;# 
   188  000D                     	;# 
   189  000E                     	;# 
   190  000E                     	;# 
   191  000F                     	;# 
   192  0010                     	;# 
   193  0011                     	;# 
   194  0012                     	;# 
   195  0013                     	;# 
   196  0014                     	;# 
   197  0015                     	;# 
   198  0015                     	;# 
   199  0016                     	;# 
   200  0017                     	;# 
   201  0018                     	;# 
   202  0019                     	;# 
   203  001A                     	;# 
   204  001B                     	;# 
   205  001B                     	;# 
   206  001C                     	;# 
   207  001D                     	;# 
   208  001E                     	;# 
   209  001F                     	;# 
   210  0081                     	;# 
   211  0085                     	;# 
   212  0086                     	;# 
   213  0087                     	;# 
   214  0088                     	;# 
   215  0089                     	;# 
   216  008C                     	;# 
   217  008D                     	;# 
   218  008E                     	;# 
   219  0091                     	;# 
   220  0092                     	;# 
   221  0093                     	;# 
   222  0094                     	;# 
   223  0098                     	;# 
   224  0099                     	;# 
   225  009C                     	;# 
   226  009D                     	;# 
   227  009E                     	;# 
   228  009F                     	;# 
   229  010C                     	;# 
   230  010D                     	;# 
   231  010E                     	;# 
   232  010F                     	;# 
   233  018C                     	;# 
   234  018D                     	;# 
   235  0000                     	;# 
   236  0001                     	;# 
   237  0002                     	;# 
   238  0003                     	;# 
   239  0004                     	;# 
   240  0005                     	;# 
   241  0006                     	;# 
   242  0007                     	;# 
   243  0008                     	;# 
   244  0009                     	;# 
   245  000A                     	;# 
   246  000B                     	;# 
   247  000C                     	;# 
   248  000D                     	;# 
   249  000E                     	;# 
   250  000E                     	;# 
   251  000F                     	;# 
   252  0010                     	;# 
   253  0011                     	;# 
   254  0012                     	;# 
   255  0013                     	;# 
   256  0014                     	;# 
   257  0015                     	;# 
   258  0015                     	;# 
   259  0016                     	;# 
   260  0017                     	;# 
   261  0018                     	;# 
   262  0019                     	;# 
   263  001A                     	;# 
   264  001B                     	;# 
   265  001B                     	;# 
   266  001C                     	;# 
   267  001D                     	;# 
   268  001E                     	;# 
   269  001F                     	;# 
   270  0081                     	;# 
   271  0085                     	;# 
   272  0086                     	;# 
   273  0087                     	;# 
   274  0088                     	;# 
   275  0089                     	;# 
   276  008C                     	;# 
   277  008D                     	;# 
   278  008E                     	;# 
   279  0091                     	;# 
   280  0092                     	;# 
   281  0093                     	;# 
   282  0094                     	;# 
   283  0098                     	;# 
   284  0099                     	;# 
   285  009C                     	;# 
   286  009D                     	;# 
   287  009E                     	;# 
   288  009F                     	;# 
   289  010C                     	;# 
   290  010D                     	;# 
   291  010E                     	;# 
   292  010F                     	;# 
   293  018C                     	;# 
   294  018D                     	;# 
   295                           
   296                           	psect	idataBANK0
   297  0ACA                     __pidataBANK0:	
   298                           
   299                           ;initializer for _freq
   300  0ACA  3480               	retlw	128
   301  0ACB  349F               	retlw	159
   302  0ACC  34D5               	retlw	213
   303  0ACD  3400               	retlw	0
   304                           
   305                           ;initializer for _step
   306  0ACE  3401               	retlw	1
   307  0ACF  3400               	retlw	0
   308  0AD0  3400               	retlw	0
   309  0AD1  3400               	retlw	0
   310                           
   311                           ;initializer for _current_digit
   312  0AD2  3409               	retlw	9
   313  0AD3  3400               	retlw	0
   314                           
   315                           	psect	strings
   316  0800                     __pstrings:	
   317  0800                     stringtab:	
   318  0800                     __stringtab:	
   319                           
   320                           ;	String table - string pointers are 1 byte each
   321  0800  1BFF               	btfsc	btemp+1,7
   322  0801  280A               	ljmp	stringcode
   323  0802  1383               	bcf	3,7
   324  0803  187F               	btfsc	btemp+1,0
   325  0804  1783               	bsf	3,7
   326  0805  0800               	movf	0,w
   327  0806  0A84               	incf	4,f
   328  0807  1903               	skipnz
   329  0808  0AFF               	incf	btemp+1,f
   330  0809  0008               	return
   331  080A                     stringcode:	
   332  080A                     stringdir:	
   333  080A  3008               	movlw	high stringdir
   334  080B  008A               	movwf	10
   335  080C  0804               	movf	4,w
   336  080D  0A84               	incf	4,f
   337  080E  0782               	addwf	2,f
   338  080F                     __stringbase:	
   339  080F  3400               	retlw	0
   340  0810                     __end_of__stringtab:	
   341  0810                     freq_to_string@digit:	
   342  0810  3430               	retlw	48
   343  0811  3431               	retlw	49
   344  0812  3432               	retlw	50
   345  0813  3433               	retlw	51
   346  0814  3434               	retlw	52
   347  0815  3435               	retlw	53
   348  0816  3436               	retlw	54
   349  0817  3437               	retlw	55
   350  0818  3438               	retlw	56
   351  0819  3439               	retlw	57
   352  081A                     __end_offreq_to_string@digit:	
   353  001F                     _ADCON0bits	set	31
   354  001E                     _ADRESH	set	30
   355  000B                     _INTCON	set	11
   356  000B                     _INTCONbits	set	11
   357  0007                     _PORTC	set	7
   358  0001                     _TMR0	set	1
   359  0030                     _RB0	set	48
   360  0031                     _RB1	set	49
   361  0032                     _RB2	set	50
   362  0033                     _RB3	set	51
   363  0034                     _RB4	set	52
   364  0035                     _RB5	set	53
   365  0036                     _RB6	set	54
   366  0037                     _RB7	set	55
   367  009F                     _ADCON1bits	set	159
   368  009E                     _ADRESL	set	158
   369  0081                     _OPTION_REG	set	129
   370  0087                     _TRISC	set	135
   371  0430                     _TRISB0	set	1072
   372  0431                     _TRISB1	set	1073
   373  0432                     _TRISB2	set	1074
   374  0433                     _TRISB3	set	1075
   375  0434                     _TRISB4	set	1076
   376  0435                     _TRISB5	set	1077
   377  0436                     _TRISB6	set	1078
   378  0437                     _TRISB7	set	1079
   379  081A                     __stringdata:	
   380  081A                     STR_1:	
   381  081A  3456               	retlw	86	;'V'
   382  081B  3400               	retlw	0
   383  081C                     __end_of__stringdata:	
   384                           
   385                           ; #config settings
   386  0000                     
   387                           	psect	cinit
   388  0015                     start_initialization:	
   389  0015                     __initialization:	
   390                           
   391                           ; Initialize objects allocated to BANK0
   392  0015  1383               	bcf	3,7	;select IRP bank0
   393  0016  3060               	movlw	low (__pdataBANK0+10)
   394  0017  00FD               	movwf	btemp+-1
   395  0018  300A               	movlw	high __pidataBANK0
   396  0019  00FE               	movwf	btemp
   397  001A  30CA               	movlw	low __pidataBANK0
   398  001B  00FF               	movwf	btemp+1
   399  001C  3056               	movlw	low __pdataBANK0
   400  001D  0084               	movwf	4
   401  001E  120A  158A  22E8   	fcall	init_ram0
   402  0021                     end_of_initialization:	
   403                           ;End of C runtime variable initialization code
   404                           
   405  0021                     __end_of__initialization:	
   406  0021  0183               	clrf	3
   407  0022  120A  158A  2B50   	ljmp	_main	;jump to C main() function
   408                           
   409                           	psect	dataBANK0
   410  0056                     __pdataBANK0:	
   411  0056                     _freq:	
   412  0056                     	ds	4
   413  005A                     _step:	
   414  005A                     	ds	4
   415  005E                     _current_digit:	
   416  005E                     	ds	2
   417                           
   418                           	psect	inittext
   419  0AE4                     init_fetch0:	
   420                           ;	Called with low address in FSR and high address in W
   421                           
   422  0AE4  087E               	movf	126,w
   423  0AE5  008A               	movwf	10
   424  0AE6  087F               	movf	127,w
   425  0AE7  0082               	movwf	2
   426  0AE8                     init_ram0:	
   427                           ;Called with:
   428                           ;	high address of idata address in btemp 
   429                           ;	low address of idata address in btemp+1 
   430                           ;	low address of data in FSR
   431                           ;	high address + 1 of data in btemp-1
   432                           
   433  0AE8  22E4  120A  158A   	fcall	init_fetch0
   434  0AEB  0080               	movwf	0
   435  0AEC  0A84               	incf	4,f
   436  0AED  0804               	movf	4,w
   437  0AEE  067D               	xorwf	125,w
   438  0AEF  1903               	btfsc	3,2
   439  0AF0  3400               	retlw	0
   440  0AF1  0AFF               	incf	127,f
   441  0AF2  1903               	btfsc	3,2
   442  0AF3  0AFE               	incf	126,f
   443  0AF4  2AE8               	goto	init_ram0
   444                           
   445                           	psect	cstackBANK1
   446  00A0                     __pcstackBANK1:	
   447  00A0                     ??_ADCInit:	
   448  00A0                     ?_dataUpdate:	
   449                           ; 0 bytes @ 0x0
   450                           
   451  00A0                     ??_TMR0_init:	
   452                           ; 0 bytes @ 0x0
   453                           
   454  00A0                     ??_toggle:	
   455                           ; 0 bytes @ 0x0
   456                           
   457  00A0                     dataUpdate@sig:	
   458                           ; 0 bytes @ 0x0
   459                           
   460                           
   461                           ; 2 bytes @ 0x0
   462  00A0                     	ds	2
   463  00A2                     ??_set_cur_l_1:	
   464  00A2                     ??_init_lcd:	
   465                           ; 0 bytes @ 0x2
   466                           
   467  00A2                     ??_dataUpdate:	
   468                           ; 0 bytes @ 0x2
   469                           
   470                           
   471                           ; 0 bytes @ 0x2
   472  00A2                     	ds	1
   473  00A3                     ??_DDS_init:	
   474  00A3                     ??_main:	
   475                           ; 0 bytes @ 0x3
   476                           
   477                           
   478                           	psect	cstackCOMMON
   479  0070                     __pcstackCOMMON:	
   480                           ; 0 bytes @ 0x3
   481                           
   482  0070                     ?_set_cur:	
   483  0070                     ?_set_underline:	
   484                           ; 0 bytes @ 0x0
   485                           
   486  0070                     ?_set_cur_l_1:	
   487                           ; 0 bytes @ 0x0
   488                           
   489  0070                     ?_ADCInit:	
   490                           ; 0 bytes @ 0x0
   491                           
   492  0070                     ?_init_lcd:	
   493                           ; 0 bytes @ 0x0
   494                           
   495  0070                     ?_DDS_init:	
   496                           ; 0 bytes @ 0x0
   497                           
   498  0070                     ?_ISR:	
   499                           ; 0 bytes @ 0x0
   500                           
   501  0070                     ?_TMR0_init:	
   502                           ; 0 bytes @ 0x0
   503                           
   504  0070                     ?_main:	
   505                           ; 0 bytes @ 0x0
   506                           
   507  0070                     ?_toggle:	
   508                           ; 0 bytes @ 0x0
   509                           
   510  0070                     ?_write_char:	
   511                           ; 0 bytes @ 0x0
   512                           
   513  0070                     ?_frequencyUpdate:	
   514                           ; 0 bytes @ 0x0
   515                           
   516  0070                     ??_frequencyUpdate:	
   517                           ; 0 bytes @ 0x0
   518                           
   519  0070                     ?___ftge:	
   520                           ; 0 bytes @ 0x0
   521                           
   522  0070                     ?i1_toggle:	
   523                           ; 1 bit 
   524                           
   525  0070                     ??i1_toggle:	
   526                           ; 0 bytes @ 0x0
   527                           
   528  0070                     ?i1_set_cur_l_1:	
   529                           ; 0 bytes @ 0x0
   530                           
   531  0070                     ?i1_dataUpdate:	
   532                           ; 0 bytes @ 0x0
   533                           
   534  0070                     ?_strlen:	
   535                           ; 0 bytes @ 0x0
   536                           
   537  0070                     ?_ReadADC:	
   538                           ; 2 bytes @ 0x0
   539                           
   540  0070                     ?___lwdiv:	
   541                           ; 2 bytes @ 0x0
   542                           
   543  0070                     ?___lwmod:	
   544                           ; 2 bytes @ 0x0
   545                           
   546  0070                     ?___wmul:	
   547                           ; 2 bytes @ 0x0
   548                           
   549  0070                     ?___ftpack:	
   550                           ; 2 bytes @ 0x0
   551                           
   552  0070                     ?___fttol:	
   553                           ; 3 bytes @ 0x0
   554                           
   555  0070                     ?___lldiv:	
   556                           ; 4 bytes @ 0x0
   557                           
   558  0070                     ?___llmod:	
   559                           ; 4 bytes @ 0x0
   560                           
   561  0070                     ReadADC@ch:	
   562                           ; 4 bytes @ 0x0
   563                           
   564  0070                     ___lwdiv@divisor:	
   565                           ; 2 bytes @ 0x0
   566                           
   567  0070                     ___lwmod@divisor:	
   568                           ; 2 bytes @ 0x0
   569                           
   570  0070                     ___wmul@multiplier:	
   571                           ; 2 bytes @ 0x0
   572                           
   573  0070                     i1dataUpdate@sig:	
   574                           ; 2 bytes @ 0x0
   575                           
   576  0070                     ___ftpack@arg:	
   577                           ; 2 bytes @ 0x0
   578                           
   579  0070                     ___ftge@ff1:	
   580                           ; 3 bytes @ 0x0
   581                           
   582  0070                     ___fttol@f1:	
   583                           ; 3 bytes @ 0x0
   584                           
   585  0070                     ___lldiv@divisor:	
   586                           ; 3 bytes @ 0x0
   587                           
   588  0070                     ___llmod@divisor:	
   589                           ; 4 bytes @ 0x0
   590                           
   591                           
   592                           ; 4 bytes @ 0x0
   593  0070                     	ds	2
   594  0072                     ??_strlen:	
   595  0072                     ??_set_cur:	
   596                           ; 0 bytes @ 0x2
   597                           
   598  0072                     ??_set_underline:	
   599                           ; 0 bytes @ 0x2
   600                           
   601  0072                     ??_write_char:	
   602                           ; 0 bytes @ 0x2
   603                           
   604  0072                     ??_ReadADC:	
   605                           ; 0 bytes @ 0x2
   606                           
   607  0072                     ??i1_set_cur_l_1:	
   608                           ; 0 bytes @ 0x2
   609                           
   610  0072                     ??i1_dataUpdate:	
   611                           ; 0 bytes @ 0x2
   612                           
   613  0072                     write_char@c:	
   614                           ; 0 bytes @ 0x2
   615                           
   616  0072                     set_cur@offset:	
   617                           ; 1 bytes @ 0x2
   618                           
   619  0072                     ___lwdiv@dividend:	
   620                           ; 1 bytes @ 0x2
   621                           
   622  0072                     ___lwmod@dividend:	
   623                           ; 2 bytes @ 0x2
   624                           
   625  0072                     ___wmul@multiplicand:	
   626                           ; 2 bytes @ 0x2
   627                           
   628                           
   629                           ; 2 bytes @ 0x2
   630  0072                     	ds	1
   631  0073                     ?_write_str:	
   632  0073                     ___ftpack@exp:	
   633                           ; 0 bytes @ 0x3
   634                           
   635  0073                     write_str@str:	
   636                           ; 1 bytes @ 0x3
   637                           
   638  0073                     ___ftge@ff2:	
   639                           ; 2 bytes @ 0x3
   640                           
   641                           
   642                           ; 3 bytes @ 0x3
   643  0073                     	ds	1
   644  0074                     ??___fttol:	
   645  0074                     ??___lwdiv:	
   646                           ; 0 bytes @ 0x4
   647                           
   648  0074                     ??___lwmod:	
   649                           ; 0 bytes @ 0x4
   650                           
   651  0074                     ??___wmul:	
   652                           ; 0 bytes @ 0x4
   653                           
   654  0074                     set_underline@offset:	
   655                           ; 0 bytes @ 0x4
   656                           
   657  0074                     ___ftpack@sign:	
   658                           ; 1 bytes @ 0x4
   659                           
   660  0074                     ___wmul@product:	
   661                           ; 1 bytes @ 0x4
   662                           
   663  0074                     ___lldiv@dividend:	
   664                           ; 2 bytes @ 0x4
   665                           
   666  0074                     ___llmod@dividend:	
   667                           ; 4 bytes @ 0x4
   668                           
   669                           
   670                           ; 4 bytes @ 0x4
   671  0074                     	ds	1
   672  0075                     ??___ftpack:	
   673  0075                     ___lwmod@counter:	
   674                           ; 0 bytes @ 0x5
   675                           
   676  0075                     write_str@length:	
   677                           ; 1 bytes @ 0x5
   678                           
   679  0075                     ___lwdiv@quotient:	
   680                           ; 2 bytes @ 0x5
   681                           
   682                           
   683                           ; 2 bytes @ 0x5
   684  0075                     	ds	1
   685  0076                     ??___ftge:	
   686  0076                     strlen@s:	
   687                           ; 0 bytes @ 0x6
   688                           
   689                           
   690                           ; 1 bytes @ 0x6
   691  0076                     	ds	1
   692  0077                     ??_write_str:	
   693  0077                     ___lwdiv@counter:	
   694                           ; 0 bytes @ 0x7
   695                           
   696  0077                     strlen@cp:	
   697                           ; 1 bytes @ 0x7
   698                           
   699                           
   700                           ; 1 bytes @ 0x7
   701  0077                     	ds	1
   702  0078                     ??___lldiv:	
   703  0078                     ??___llmod:	
   704                           ; 0 bytes @ 0x8
   705                           
   706  0078                     ?_utoa:	
   707                           ; 0 bytes @ 0x8
   708                           
   709  0078                     ?___awtoft:	
   710                           ; 1 bytes @ 0x8
   711                           
   712  0078                     ?___ftdiv:	
   713                           ; 3 bytes @ 0x8
   714                           
   715  0078                     ?___ftneg:	
   716                           ; 3 bytes @ 0x8
   717                           
   718  0078                     ?___lltoft:	
   719                           ; 3 bytes @ 0x8
   720                           
   721  0078                     ___fttol@sign1:	
   722                           ; 3 bytes @ 0x8
   723                           
   724  0078                     write_str@i:	
   725                           ; 1 bytes @ 0x8
   726                           
   727  0078                     ___awtoft@c:	
   728                           ; 2 bytes @ 0x8
   729                           
   730  0078                     utoa@val:	
   731                           ; 2 bytes @ 0x8
   732                           
   733  0078                     ___ftdiv@f2:	
   734                           ; 2 bytes @ 0x8
   735                           
   736  0078                     ___ftneg@f1:	
   737                           ; 3 bytes @ 0x8
   738                           
   739  0078                     ___lltoft@c:	
   740                           ; 3 bytes @ 0x8
   741                           
   742                           
   743                           ; 4 bytes @ 0x8
   744  0078                     	ds	1
   745  0079                     ___llmod@counter:	
   746  0079                     ___fttol@lval:	
   747                           ; 1 bytes @ 0x9
   748                           
   749  0079                     ___lldiv@quotient:	
   750                           ; 4 bytes @ 0x9
   751                           
   752                           
   753                           ; 4 bytes @ 0x9
   754  0079                     	ds	1
   755  007A                     utoa@base:	
   756                           
   757                           ; 2 bytes @ 0xA
   758  007A                     	ds	1
   759  007B                     ??___awtoft:	
   760  007B                     ??___ftneg:	
   761                           ; 0 bytes @ 0xB
   762                           
   763  007B                     ?___lwtoft:	
   764                           ; 0 bytes @ 0xB
   765                           
   766  007B                     ___lwtoft@c:	
   767                           ; 3 bytes @ 0xB
   768                           
   769  007B                     ___ftdiv@f1:	
   770                           ; 2 bytes @ 0xB
   771                           
   772                           
   773                           ; 3 bytes @ 0xB
   774  007B                     	ds	1
   775  007C                     ??_utoa:	
   776  007C                     ??___lltoft:	
   777                           ; 0 bytes @ 0xC
   778                           
   779                           
   780                           ; 0 bytes @ 0xC
   781  007C                     	ds	1
   782  007D                     ___awtoft@sign:	
   783  007D                     ___fttol@exp1:	
   784                           ; 1 bytes @ 0xD
   785                           
   786  007D                     ___lldiv@counter:	
   787                           ; 1 bytes @ 0xD
   788                           
   789  007D                     ___lltoft@exp:	
   790                           ; 1 bytes @ 0xD
   791                           
   792                           
   793                           ; 1 bytes @ 0xD
   794  007D                     	ds	1
   795  007E                     ??_update_dds:	
   796  007E                     ??_calculate_frequency:	
   797                           ; 0 bytes @ 0xE
   798                           
   799                           
   800                           	psect	cstackBANK0
   801  0020                     __pcstackBANK0:	
   802                           ; 0 bytes @ 0xE
   803                           
   804  0020                     ?_freq_to_string:	
   805  0020                     ??___ftdiv:	
   806                           ; 0 bytes @ 0x0
   807                           
   808  0020                     ??___lwtoft:	
   809                           ; 0 bytes @ 0x0
   810                           
   811  0020                     ?___ftmul:	
   812                           ; 0 bytes @ 0x0
   813                           
   814  0020                     utoa@v:	
   815                           ; 3 bytes @ 0x0
   816                           
   817  0020                     ___ftmul@f1:	
   818                           ; 2 bytes @ 0x0
   819                           
   820  0020                     freq_to_string@val:	
   821                           ; 3 bytes @ 0x0
   822                           
   823                           
   824                           ; 4 bytes @ 0x0
   825  0020                     	ds	1
   826  0021                     ?___ftadd:	
   827  0021                     ___ftadd@f1:	
   828                           ; 3 bytes @ 0x1
   829                           
   830                           
   831                           ; 3 bytes @ 0x1
   832  0021                     	ds	1
   833  0022                     utoa@c:	
   834                           
   835                           ; 1 bytes @ 0x2
   836  0022                     	ds	1
   837  0023                     utoa@buf:	
   838  0023                     ___ftmul@f2:	
   839                           ; 1 bytes @ 0x3
   840                           
   841                           
   842                           ; 3 bytes @ 0x3
   843  0023                     	ds	1
   844  0024                     ??_freq_to_string:	
   845  0024                     ___ftdiv@cntr:	
   846                           ; 0 bytes @ 0x4
   847                           
   848  0024                     ___ftadd@f2:	
   849                           ; 1 bytes @ 0x4
   850                           
   851                           
   852                           ; 3 bytes @ 0x4
   853  0024                     	ds	1
   854  0025                     ___ftdiv@f3:	
   855                           
   856                           ; 3 bytes @ 0x5
   857  0025                     	ds	1
   858  0026                     ??___ftmul:	
   859  0026                     freq_to_string@buf:	
   860                           ; 0 bytes @ 0x6
   861                           
   862                           
   863                           ; 1 bytes @ 0x6
   864  0026                     	ds	1
   865  0027                     ??___ftadd:	
   866  0027                     freq_to_string@i:	
   867                           ; 0 bytes @ 0x7
   868                           
   869                           
   870                           ; 2 bytes @ 0x7
   871  0027                     	ds	1
   872  0028                     ___ftdiv@exp:	
   873                           
   874                           ; 1 bytes @ 0x8
   875  0028                     	ds	1
   876  0029                     ___ftdiv@sign:	
   877                           
   878                           ; 1 bytes @ 0x9
   879  0029                     	ds	1
   880  002A                     ___ftmul@exp:	
   881                           
   882                           ; 1 bytes @ 0xA
   883  002A                     	ds	1
   884  002B                     ___ftadd@sign:	
   885  002B                     ___ftmul@f3_as_product:	
   886                           ; 1 bytes @ 0xB
   887                           
   888                           
   889                           ; 3 bytes @ 0xB
   890  002B                     	ds	1
   891  002C                     ___ftadd@exp2:	
   892                           
   893                           ; 1 bytes @ 0xC
   894  002C                     	ds	1
   895  002D                     ___ftadd@exp1:	
   896                           
   897                           ; 1 bytes @ 0xD
   898  002D                     	ds	1
   899  002E                     ___ftmul@cntr:	
   900                           
   901                           ; 1 bytes @ 0xE
   902  002E                     	ds	1
   903  002F                     ___ftmul@sign:	
   904                           
   905                           ; 1 bytes @ 0xF
   906  002F                     	ds	1
   907  0030                     ?_ReadVoltage:	
   908  0030                     ?_calculate_frequency:	
   909                           ; 3 bytes @ 0x10
   910                           
   911  0030                     ReadVoltage@ch:	
   912                           ; 4 bytes @ 0x10
   913                           
   914  0030                     calculate_frequency@frequency:	
   915                           ; 2 bytes @ 0x10
   916                           
   917                           
   918                           ; 4 bytes @ 0x10
   919  0030                     	ds	3
   920  0033                     ??_ReadVoltage:	
   921                           
   922                           ; 0 bytes @ 0x13
   923  0033                     	ds	1
   924  0034                     ReadVoltage@adc_value:	
   925  0034                     calculate_frequency@tmp:	
   926                           ; 3 bytes @ 0x14
   927                           
   928                           
   929                           ; 3 bytes @ 0x14
   930  0034                     	ds	3
   931  0037                     ?_FloatToString:	
   932  0037                     ?_load_freq:	
   933                           ; 0 bytes @ 0x17
   934                           
   935  0037                     FloatToString@f:	
   936                           ; 0 bytes @ 0x17
   937                           
   938  0037                     load_freq@freq:	
   939                           ; 3 bytes @ 0x17
   940                           
   941                           
   942                           ; 4 bytes @ 0x17
   943  0037                     	ds	3
   944  003A                     FloatToString@size:	
   945                           
   946                           ; 1 bytes @ 0x1A
   947  003A                     	ds	1
   948  003B                     ??_FloatToString:	
   949  003B                     ??_load_freq:	
   950                           ; 0 bytes @ 0x1B
   951                           
   952                           
   953                           ; 0 bytes @ 0x1B
   954  003B                     	ds	4
   955  003F                     FloatToString@curr:	
   956  003F                     load_freq@i:	
   957                           ; 1 bytes @ 0x1F
   958                           
   959                           
   960                           ; 2 bytes @ 0x1F
   961  003F                     	ds	1
   962  0040                     FloatToString@len:	
   963                           
   964                           ; 1 bytes @ 0x20
   965  0040                     	ds	1
   966  0041                     ?_update_dds:	
   967  0041                     FloatToString@str:	
   968                           ; 0 bytes @ 0x21
   969                           
   970  0041                     update_dds@frequency:	
   971                           ; 1 bytes @ 0x21
   972                           
   973                           
   974                           ; 4 bytes @ 0x21
   975  0041                     	ds	1
   976  0042                     FloatToString@pos:	
   977                           
   978                           ; 1 bytes @ 0x22
   979  0042                     	ds	1
   980  0043                     FloatToString@value:	
   981                           
   982                           ; 2 bytes @ 0x23
   983  0043                     	ds	2
   984  0045                     ??_ISR:	
   985                           
   986                           ; 0 bytes @ 0x25
   987  0045                     	ds	7
   988  004C                     ISR@buffer:	
   989                           
   990                           ; 10 bytes @ 0x2C
   991  004C                     	ds	10
   992                           
   993                           	psect	maintext
   994  0B50                     __pmaintext:	
   995 ;;
   996 ;;Main: autosize = 0, tempsize = 0, incstack = 0, save=0
   997 ;;
   998 ;; *************** function _main *****************
   999 ;; Defined at:
  1000 ;;		line 237 in file "main.c"
  1001 ;; Parameters:    Size  Location     Type
  1002 ;;		None
  1003 ;; Auto vars:     Size  Location     Type
  1004 ;;		None
  1005 ;; Return value:  Size  Location     Type
  1006 ;;		None               void
  1007 ;; Registers used:
  1008 ;;		wreg, fsr0l, fsr0h, fsr1l, fsr1h, fsr1l, fsr1h, status,2, status,0, btemp+1, pclath, cstack
  1009 ;; Tracked objects:
  1010 ;;		On entry : 17F/0
  1011 ;;		On exit  : 0/0
  1012 ;;		Unchanged: 0/0
  1013 ;; Data sizes:     COMMON   BANK0   BANK1   BANK3   BANK2
  1014 ;;      Params:         0       0       0       0       0
  1015 ;;      Locals:         0       0       0       0       0
  1016 ;;      Temps:          0       0       0       0       0
  1017 ;;      Totals:         0       0       0       0       0
  1018 ;;Total ram usage:        0 bytes
  1019 ;; Hardware stack levels required when called:    7
  1020 ;; This function calls:
  1021 ;;		_set_cur_l_1
  1022 ;;		_TMR0_init
  1023 ;;		_ADCInit
  1024 ;;		_init_lcd
  1025 ;;		_DDS_init
  1026 ;; This function is called by:
  1027 ;;		Startup code after reset
  1028 ;; This function uses a non-reentrant model
  1029 ;;
  1030                           
  1031                           
  1032                           ;psect for function _main
  1033  0B50                     _main:	
  1034                           
  1035                           ;main.c: 239: ADCInit();
  1036                           
  1037                           ;incstack = 0
  1038                           ; Regs used in _main: [allreg]
  1039  0B50  120A  158A  2307   	fcall	_ADCInit
      +       120A  158A         
  1040                           
  1041                           ;main.c: 240: init_lcd();
  1042  0B55  120A  158A  2459   	fcall	_init_lcd
      +       120A  158A         
  1043                           
  1044                           ;main.c: 241: TMR0_init();
  1045  0B5A  120A  158A  229C   	fcall	_TMR0_init
      +       120A  158A         
  1046                           
  1047                           ;main.c: 242: set_cur_l_1();
  1048  0B5F  120A  158A  22AD   	fcall	_set_cur_l_1
      +       120A  158A         
  1049                           
  1050                           ;main.c: 243: DDS_init();
  1051  0B64  120A  158A  2617   	fcall	_DDS_init
      +       120A  158A         
  1052                           
  1053                           ;main.c: 246: INTCON = 0xA8;
  1054  0B69  30A8               	movlw	168
  1055  0B6A  008B               	movwf	11	;volatile
  1056                           
  1057                           ;main.c: 250: TRISB5 = 1;
  1058  0B6B  1683               	bsf	3,5	;RP0=1, select bank1
  1059  0B6C  1303               	bcf	3,6	;RP1=0, select bank1
  1060  0B6D  1686               	bsf	6,5	;volatile
  1061                           
  1062                           ;main.c: 251: TRISB4 = 1;
  1063  0B6E  1606               	bsf	6,4	;volatile
  1064                           
  1065                           ;main.c: 252: TRISB3 = 1;
  1066  0B6F  1586               	bsf	6,3	;volatile
  1067  0B70                     l92:	
  1068                           ;main.c: 258: for(;;);
  1069                           
  1070  0B70  2B70               	goto	l92
  1071  0B71                     __end_of_main:	
  1072                           
  1073                           	psect	text1
  1074  0E17                     __ptext1:	
  1075 ;; *************** function _DDS_init *****************
  1076 ;; Defined at:
  1077 ;;		line 15 in file "dds.c"
  1078 ;; Parameters:    Size  Location     Type
  1079 ;;		None
  1080 ;; Auto vars:     Size  Location     Type
  1081 ;;		None
  1082 ;; Return value:  Size  Location     Type
  1083 ;;		None               void
  1084 ;; Registers used:
  1085 ;;		wreg, status,2, status,0, pclath, cstack
  1086 ;; Tracked objects:
  1087 ;;		On entry : 0/0
  1088 ;;		On exit  : 0/0
  1089 ;;		Unchanged: 0/0
  1090 ;; Data sizes:     COMMON   BANK0   BANK1   BANK3   BANK2
  1091 ;;      Params:         0       0       0       0       0
  1092 ;;      Locals:         0       0       0       0       0
  1093 ;;      Temps:          0       0       0       0       0
  1094 ;;      Totals:         0       0       0       0       0
  1095 ;;Total ram usage:        0 bytes
  1096 ;; Hardware stack levels used:    1
  1097 ;; Hardware stack levels required when called:    6
  1098 ;; This function calls:
  1099 ;;		_dataUpdate
  1100 ;; This function is called by:
  1101 ;;		_main
  1102 ;; This function uses a non-reentrant model
  1103 ;;
  1104                           
  1105                           
  1106                           ;psect for function _DDS_init
  1107  0E17                     _DDS_init:	
  1108                           
  1109                           ;dds.c: 16: TRISB0 = 0;
  1110                           
  1111                           ;incstack = 0
  1112                           ; Regs used in _DDS_init: [wreg+status,2+status,0+pclath+cstack]
  1113  0E17  1683               	bsf	3,5	;RP0=1, select bank1
  1114  0E18  1303               	bcf	3,6	;RP1=0, select bank1
  1115  0E19  1006               	bcf	6,0	;volatile
  1116                           
  1117                           ;dds.c: 17: TRISB1 = 0;
  1118  0E1A  1086               	bcf	6,1	;volatile
  1119                           
  1120                           ;dds.c: 18: TRISB2 = 0;
  1121  0E1B  1106               	bcf	6,2	;volatile
  1122                           
  1123                           ;dds.c: 21: dataUpdate(0);
  1124  0E1C  3000               	movlw	0
  1125  0E1D  00A0               	movwf	?_dataUpdate^(0+128)
  1126  0E1E  3000               	movlw	0
  1127  0E1F  00A1               	movwf	(?_dataUpdate^(0+128)+1)
  1128  0E20  120A  158A  2394   	fcall	_dataUpdate
      +       120A  158A         
  1129                           
  1130                           ;dds.c: 23: dataUpdate(0);
  1131  0E25  3000               	movlw	0
  1132  0E26  1683               	bsf	3,5	;RP0=1, select bank1
  1133  0E27  1303               	bcf	3,6	;RP1=0, select bank1
  1134  0E28  00A0               	movwf	?_dataUpdate^(0+128)
  1135  0E29  3000               	movlw	0
  1136  0E2A  00A1               	movwf	(?_dataUpdate^(0+128)+1)
  1137  0E2B  120A  158A  2394   	fcall	_dataUpdate
      +       120A  158A         
  1138                           
  1139                           ;dds.c: 25: dataUpdate(0);
  1140  0E30  3000               	movlw	0
  1141  0E31  1683               	bsf	3,5	;RP0=1, select bank1
  1142  0E32  1303               	bcf	3,6	;RP1=0, select bank1
  1143  0E33  00A0               	movwf	?_dataUpdate^(0+128)
  1144  0E34  3000               	movlw	0
  1145  0E35  00A1               	movwf	(?_dataUpdate^(0+128)+1)
  1146  0E36  120A  158A  2394   	fcall	_dataUpdate
      +       120A  158A         
  1147                           
  1148                           ;dds.c: 27: dataUpdate(0);
  1149  0E3B  3000               	movlw	0
  1150  0E3C  1683               	bsf	3,5	;RP0=1, select bank1
  1151  0E3D  1303               	bcf	3,6	;RP1=0, select bank1
  1152  0E3E  00A0               	movwf	?_dataUpdate^(0+128)
  1153  0E3F  3000               	movlw	0
  1154  0E40  00A1               	movwf	(?_dataUpdate^(0+128)+1)
  1155  0E41  120A  158A  2394   	fcall	_dataUpdate
      +       120A  158A         
  1156                           
  1157                           ;dds.c: 29: dataUpdate(0);
  1158  0E46  3000               	movlw	0
  1159  0E47  1683               	bsf	3,5	;RP0=1, select bank1
  1160  0E48  1303               	bcf	3,6	;RP1=0, select bank1
  1161  0E49  00A0               	movwf	?_dataUpdate^(0+128)
  1162  0E4A  3000               	movlw	0
  1163  0E4B  00A1               	movwf	(?_dataUpdate^(0+128)+1)
  1164  0E4C  120A  158A  2394   	fcall	_dataUpdate
      +       120A  158A         
  1165                           
  1166                           ;dds.c: 31: dataUpdate(0);
  1167  0E51  3000               	movlw	0
  1168  0E52  1683               	bsf	3,5	;RP0=1, select bank1
  1169  0E53  1303               	bcf	3,6	;RP1=0, select bank1
  1170  0E54  00A0               	movwf	?_dataUpdate^(0+128)
  1171  0E55  3000               	movlw	0
  1172  0E56  00A1               	movwf	(?_dataUpdate^(0+128)+1)
  1173  0E57  120A  158A  2394   	fcall	_dataUpdate
      +       120A  158A         
  1174                           
  1175                           ;dds.c: 33: dataUpdate(1);
  1176  0E5C  3001               	movlw	1
  1177  0E5D  1683               	bsf	3,5	;RP0=1, select bank1
  1178  0E5E  1303               	bcf	3,6	;RP1=0, select bank1
  1179  0E5F  00A0               	movwf	?_dataUpdate^(0+128)
  1180  0E60  3000               	movlw	0
  1181  0E61  00A1               	movwf	(?_dataUpdate^(0+128)+1)
  1182  0E62  120A  158A  2394   	fcall	_dataUpdate
      +       120A  158A         
  1183                           
  1184                           ;dds.c: 35: dataUpdate(1);
  1185  0E67  3001               	movlw	1
  1186  0E68  1683               	bsf	3,5	;RP0=1, select bank1
  1187  0E69  1303               	bcf	3,6	;RP1=0, select bank1
  1188  0E6A  00A0               	movwf	?_dataUpdate^(0+128)
  1189  0E6B  3000               	movlw	0
  1190  0E6C  00A1               	movwf	(?_dataUpdate^(0+128)+1)
  1191  0E6D  120A  158A  2394   	fcall	_dataUpdate
  1192  0E70  0008               	return
  1193  0E71                     __end_of_DDS_init:	
  1194                           
  1195                           	psect	text2
  1196  0B94                     __ptext2:	
  1197 ;; *************** function _dataUpdate *****************
  1198 ;; Defined at:
  1199 ;;		line 59 in file "dds.c"
  1200 ;; Parameters:    Size  Location     Type
  1201 ;;  sig             2    0[BANK1 ] int 
  1202 ;; Auto vars:     Size  Location     Type
  1203 ;;		None
  1204 ;; Return value:  Size  Location     Type
  1205 ;;		None               void
  1206 ;; Registers used:
  1207 ;;		wreg
  1208 ;; Tracked objects:
  1209 ;;		On entry : 0/0
  1210 ;;		On exit  : 0/0
  1211 ;;		Unchanged: 0/0
  1212 ;; Data sizes:     COMMON   BANK0   BANK1   BANK3   BANK2
  1213 ;;      Params:         0       0       2       0       0
  1214 ;;      Locals:         0       0       0       0       0
  1215 ;;      Temps:          0       0       1       0       0
  1216 ;;      Totals:         0       0       3       0       0
  1217 ;;Total ram usage:        3 bytes
  1218 ;; Hardware stack levels used:    1
  1219 ;; Hardware stack levels required when called:    5
  1220 ;; This function calls:
  1221 ;;		Nothing
  1222 ;; This function is called by:
  1223 ;;		_DDS_init
  1224 ;; This function uses a non-reentrant model
  1225 ;;
  1226                           
  1227                           
  1228                           ;psect for function _dataUpdate
  1229  0B94                     _dataUpdate:	
  1230                           
  1231                           ;dds.c: 60: RB2 = sig;
  1232                           
  1233                           ;incstack = 0
  1234                           ; Regs used in _dataUpdate: [wreg]
  1235  0B94  1683               	bsf	3,5	;RP0=1, select bank1
  1236  0B95  1303               	bcf	3,6	;RP1=0, select bank1
  1237  0B96  1C20               	btfss	dataUpdate@sig^(0+128),0
  1238  0B97  2B9C               	goto	u1380
  1239  0B98  1283               	bcf	3,5	;RP0=0, select bank0
  1240  0B99  1303               	bcf	3,6	;RP1=0, select bank0
  1241  0B9A  1506               	bsf	6,2	;volatile
  1242  0B9B  2B9F               	goto	l2408
  1243  0B9C                     u1380:	
  1244  0B9C  1283               	bcf	3,5	;RP0=0, select bank0
  1245  0B9D  1303               	bcf	3,6	;RP1=0, select bank0
  1246  0B9E  1106               	bcf	6,2	;volatile
  1247  0B9F                     l2408:	
  1248                           
  1249                           ;dds.c: 61: _delay(1000);
  1250  0B9F  30F9               	movlw	249
  1251  0BA0  1683               	bsf	3,5	;RP0=1, select bank1
  1252  0BA1  1303               	bcf	3,6	;RP1=0, select bank1
  1253  0BA2  00A2               	movwf	??_dataUpdate^(0+128)
  1254  0BA3                     u2717:	
  1255  0BA3  0000               	nop
  1256  0BA4  0BA2               	decfsz	??_dataUpdate^(0+128),f
  1257  0BA5  2BA3               	goto	u2717
  1258  0BA6  2BA7               	nop2	;nop
  1259  0BA7  0000               	nop
  1260                           
  1261                           ;dds.c: 62: RB0 = 1;
  1262  0BA8  1283               	bcf	3,5	;RP0=0, select bank0
  1263  0BA9  1303               	bcf	3,6	;RP1=0, select bank0
  1264  0BAA  1406               	bsf	6,0	;volatile
  1265                           
  1266                           ;dds.c: 64: RB0 = 0;
  1267  0BAB  1006               	bcf	6,0	;volatile
  1268                           
  1269                           ;dds.c: 65: RB2 = 0;
  1270  0BAC  1106               	bcf	6,2	;volatile
  1271                           
  1272                           ;dds.c: 66: _delay(1000);
  1273  0BAD  30F9               	movlw	249
  1274  0BAE  1683               	bsf	3,5	;RP0=1, select bank1
  1275  0BAF  1303               	bcf	3,6	;RP1=0, select bank1
  1276  0BB0  00A2               	movwf	??_dataUpdate^(0+128)
  1277  0BB1                     u2727:	
  1278  0BB1  0000               	nop
  1279  0BB2  0BA2               	decfsz	??_dataUpdate^(0+128),f
  1280  0BB3  2BB1               	goto	u2727
  1281  0BB4  2BB5               	nop2	;nop
  1282  0BB5  0000               	nop
  1283  0BB6  0008               	return
  1284  0BB7                     __end_of_dataUpdate:	
  1285                           
  1286                           	psect	text3
  1287  0C59                     __ptext3:	
  1288 ;; *************** function _init_lcd *****************
  1289 ;; Defined at:
  1290 ;;		line 16 in file "lcd.c"
  1291 ;; Parameters:    Size  Location     Type
  1292 ;;		None
  1293 ;; Auto vars:     Size  Location     Type
  1294 ;;		None
  1295 ;; Return value:  Size  Location     Type
  1296 ;;		None               void
  1297 ;; Registers used:
  1298 ;;		wreg, status,2, status,0, pclath, cstack
  1299 ;; Tracked objects:
  1300 ;;		On entry : 0/0
  1301 ;;		On exit  : 0/0
  1302 ;;		Unchanged: 0/0
  1303 ;; Data sizes:     COMMON   BANK0   BANK1   BANK3   BANK2
  1304 ;;      Params:         0       0       0       0       0
  1305 ;;      Locals:         0       0       0       0       0
  1306 ;;      Temps:          0       0       0       0       0
  1307 ;;      Totals:         0       0       0       0       0
  1308 ;;Total ram usage:        0 bytes
  1309 ;; Hardware stack levels used:    1
  1310 ;; Hardware stack levels required when called:    6
  1311 ;; This function calls:
  1312 ;;		_toggle
  1313 ;; This function is called by:
  1314 ;;		_main
  1315 ;; This function uses a non-reentrant model
  1316 ;;
  1317                           
  1318                           
  1319                           ;psect for function _init_lcd
  1320  0C59                     _init_lcd:	
  1321                           
  1322                           ;lcd.c: 17: TRISC = 0;
  1323                           
  1324                           ;incstack = 0
  1325                           ; Regs used in _init_lcd: [wreg+status,2+status,0+pclath+cstack]
  1326  0C59  1683               	bsf	3,5	;RP0=1, select bank1
  1327  0C5A  1303               	bcf	3,6	;RP1=0, select bank1
  1328  0C5B  0187               	clrf	7	;volatile
  1329                           
  1330                           ;lcd.c: 18: TRISB6 = 0;
  1331  0C5C  1306               	bcf	6,6	;volatile
  1332                           
  1333                           ;lcd.c: 19: TRISB7 = 0;
  1334  0C5D  1386               	bcf	6,7	;volatile
  1335                           
  1336                           ;lcd.c: 21: RB6 = 0;
  1337  0C5E  1283               	bcf	3,5	;RP0=0, select bank0
  1338  0C5F  1303               	bcf	3,6	;RP1=0, select bank0
  1339  0C60  1306               	bcf	6,6	;volatile
  1340                           
  1341                           ;lcd.c: 23: PORTC = 0x38;
  1342  0C61  3038               	movlw	56
  1343  0C62  0087               	movwf	7	;volatile
  1344                           
  1345                           ;lcd.c: 24: toggle();
  1346  0C63  120A  158A  22F5   	fcall	_toggle
      +       120A  158A         
  1347                           
  1348                           ;lcd.c: 27: PORTC = 0X0C;
  1349  0C68  300C               	movlw	12
  1350  0C69  1283               	bcf	3,5	;RP0=0, select bank0
  1351  0C6A  1303               	bcf	3,6	;RP1=0, select bank0
  1352  0C6B  0087               	movwf	7	;volatile
  1353                           
  1354                           ;lcd.c: 28: toggle();
  1355  0C6C  120A  158A  22F5   	fcall	_toggle
      +       120A  158A         
  1356                           
  1357                           ;lcd.c: 31: PORTC = 0x01;
  1358  0C71  3001               	movlw	1
  1359  0C72  1283               	bcf	3,5	;RP0=0, select bank0
  1360  0C73  1303               	bcf	3,6	;RP1=0, select bank0
  1361  0C74  0087               	movwf	7	;volatile
  1362                           
  1363                           ;lcd.c: 32: toggle();
  1364  0C75  120A  158A  22F5   	fcall	_toggle
      +       120A  158A         
  1365                           
  1366                           ;lcd.c: 35: PORTC = 0X06;
  1367  0C7A  3006               	movlw	6
  1368  0C7B  1283               	bcf	3,5	;RP0=0, select bank0
  1369  0C7C  1303               	bcf	3,6	;RP1=0, select bank0
  1370  0C7D  0087               	movwf	7	;volatile
  1371                           
  1372                           ;lcd.c: 36: toggle();
  1373  0C7E  120A  158A  22F5   	fcall	_toggle
      +       120A  158A         
  1374                           
  1375                           ;lcd.c: 39: PORTC = 0X80;
  1376  0C83  3080               	movlw	128
  1377  0C84  1283               	bcf	3,5	;RP0=0, select bank0
  1378  0C85  1303               	bcf	3,6	;RP1=0, select bank0
  1379  0C86  0087               	movwf	7	;volatile
  1380                           
  1381                           ;lcd.c: 40: toggle();
  1382  0C87  120A  158A  22F5   	fcall	_toggle
  1383  0C8A  0008               	return
  1384  0C8B                     __end_of_init_lcd:	
  1385                           
  1386                           	psect	text4
  1387  0B07                     __ptext4:	
  1388 ;; *************** function _ADCInit *****************
  1389 ;; Defined at:
  1390 ;;		line 8 in file "adc.c"
  1391 ;; Parameters:    Size  Location     Type
  1392 ;;		None
  1393 ;; Auto vars:     Size  Location     Type
  1394 ;;		None
  1395 ;; Return value:  Size  Location     Type
  1396 ;;		None               void
  1397 ;; Registers used:
  1398 ;;		wreg, status,2, status,0
  1399 ;; Tracked objects:
  1400 ;;		On entry : 0/0
  1401 ;;		On exit  : 0/0
  1402 ;;		Unchanged: 0/0
  1403 ;; Data sizes:     COMMON   BANK0   BANK1   BANK3   BANK2
  1404 ;;      Params:         0       0       0       0       0
  1405 ;;      Locals:         0       0       0       0       0
  1406 ;;      Temps:          0       0       0       0       0
  1407 ;;      Totals:         0       0       0       0       0
  1408 ;;Total ram usage:        0 bytes
  1409 ;; Hardware stack levels used:    1
  1410 ;; Hardware stack levels required when called:    5
  1411 ;; This function calls:
  1412 ;;		Nothing
  1413 ;; This function is called by:
  1414 ;;		_main
  1415 ;; This function uses a non-reentrant model
  1416 ;;
  1417                           
  1418                           
  1419                           ;psect for function _ADCInit
  1420  0B07                     _ADCInit:	
  1421                           
  1422                           ;adc.c: 9: ADCON1bits.ADFM=1;
  1423                           
  1424                           ;incstack = 0
  1425                           ; Regs used in _ADCInit: [wreg+status,2+status,0]
  1426  0B07  1683               	bsf	3,5	;RP0=1, select bank1
  1427  0B08  1303               	bcf	3,6	;RP1=0, select bank1
  1428  0B09  179F               	bsf	31,7	;volatile
  1429                           
  1430                           ;adc.c: 14: ADCON1bits.PCFG=0x0;
  1431  0B0A  30F0               	movlw	-16
  1432  0B0B  059F               	andwf	31,f	;volatile
  1433                           
  1434                           ;adc.c: 17: ADCON0bits.ADCS=0b10;
  1435  0B0C  1283               	bcf	3,5	;RP0=0, select bank0
  1436  0B0D  1303               	bcf	3,6	;RP1=0, select bank0
  1437  0B0E  081F               	movf	31,w	;volatile
  1438  0B0F  393F               	andlw	-193
  1439  0B10  3880               	iorlw	128
  1440  0B11  009F               	movwf	31	;volatile
  1441                           
  1442                           ;adc.c: 18: ADCON1bits.ADCS2=1;
  1443  0B12  1683               	bsf	3,5	;RP0=1, select bank1
  1444  0B13  1303               	bcf	3,6	;RP1=0, select bank1
  1445  0B14  171F               	bsf	31,6	;volatile
  1446                           
  1447                           ;adc.c: 21: ADCON0bits.ADON=1;
  1448  0B15  1283               	bcf	3,5	;RP0=0, select bank0
  1449  0B16  1303               	bcf	3,6	;RP1=0, select bank0
  1450  0B17  141F               	bsf	31,0	;volatile
  1451  0B18  0008               	return
  1452  0B19                     __end_of_ADCInit:	
  1453                           
  1454                           	psect	text5
  1455  0A9C                     __ptext5:	
  1456 ;; *************** function _TMR0_init *****************
  1457 ;; Defined at:
  1458 ;;		line 231 in file "main.c"
  1459 ;; Parameters:    Size  Location     Type
  1460 ;;		None
  1461 ;; Auto vars:     Size  Location     Type
  1462 ;;		None
  1463 ;; Return value:  Size  Location     Type
  1464 ;;		None               void
  1465 ;; Registers used:
  1466 ;;		wreg, status,2
  1467 ;; Tracked objects:
  1468 ;;		On entry : 0/0
  1469 ;;		On exit  : 0/0
  1470 ;;		Unchanged: 0/0
  1471 ;; Data sizes:     COMMON   BANK0   BANK1   BANK3   BANK2
  1472 ;;      Params:         0       0       0       0       0
  1473 ;;      Locals:         0       0       0       0       0
  1474 ;;      Temps:          0       0       0       0       0
  1475 ;;      Totals:         0       0       0       0       0
  1476 ;;Total ram usage:        0 bytes
  1477 ;; Hardware stack levels used:    1
  1478 ;; Hardware stack levels required when called:    5
  1479 ;; This function calls:
  1480 ;;		Nothing
  1481 ;; This function is called by:
  1482 ;;		_main
  1483 ;; This function uses a non-reentrant model
  1484 ;;
  1485                           
  1486                           
  1487                           ;psect for function _TMR0_init
  1488  0A9C                     _TMR0_init:	
  1489                           
  1490                           ;main.c: 232: OPTION_REG = 0x07;
  1491                           
  1492                           ;incstack = 0
  1493                           ; Regs used in _TMR0_init: [wreg+status,2]
  1494  0A9C  3007               	movlw	7
  1495  0A9D  1683               	bsf	3,5	;RP0=1, select bank1
  1496  0A9E  1303               	bcf	3,6	;RP1=0, select bank1
  1497  0A9F  0081               	movwf	1	;volatile
  1498                           
  1499                           ;main.c: 233: TMR0 = 0;
  1500  0AA0  1283               	bcf	3,5	;RP0=0, select bank0
  1501  0AA1  1303               	bcf	3,6	;RP1=0, select bank0
  1502  0AA2  0181               	clrf	1	;volatile
  1503  0AA3  0008               	return
  1504  0AA4                     __end_of_TMR0_init:	
  1505                           
  1506                           	psect	text6
  1507  0AAD                     __ptext6:	
  1508 ;; *************** function _set_cur_l_1 *****************
  1509 ;; Defined at:
  1510 ;;		line 54 in file "lcd.c"
  1511 ;; Parameters:    Size  Location     Type
  1512 ;;		None
  1513 ;; Auto vars:     Size  Location     Type
  1514 ;;		None
  1515 ;; Return value:  Size  Location     Type
  1516 ;;		None               void
  1517 ;; Registers used:
  1518 ;;		wreg, status,2, status,0, pclath, cstack
  1519 ;; Tracked objects:
  1520 ;;		On entry : 0/0
  1521 ;;		On exit  : 0/0
  1522 ;;		Unchanged: 0/0
  1523 ;; Data sizes:     COMMON   BANK0   BANK1   BANK3   BANK2
  1524 ;;      Params:         0       0       0       0       0
  1525 ;;      Locals:         0       0       0       0       0
  1526 ;;      Temps:          0       0       0       0       0
  1527 ;;      Totals:         0       0       0       0       0
  1528 ;;Total ram usage:        0 bytes
  1529 ;; Hardware stack levels used:    1
  1530 ;; Hardware stack levels required when called:    6
  1531 ;; This function calls:
  1532 ;;		_toggle
  1533 ;; This function is called by:
  1534 ;;		_main
  1535 ;; This function uses a non-reentrant model
  1536 ;;
  1537                           
  1538                           
  1539                           ;psect for function _set_cur_l_1
  1540  0AAD                     _set_cur_l_1:	
  1541                           
  1542                           ;lcd.c: 55: RB6 = 0;
  1543                           
  1544                           ;incstack = 0
  1545                           ; Regs used in _set_cur_l_1: [wreg+status,2+status,0+pclath+cstack]
  1546  0AAD  1283               	bcf	3,5	;RP0=0, select bank0
  1547  0AAE  1303               	bcf	3,6	;RP1=0, select bank0
  1548  0AAF  1306               	bcf	6,6	;volatile
  1549                           
  1550                           ;lcd.c: 56: PORTC = 0X80;
  1551  0AB0  3080               	movlw	128
  1552  0AB1  0087               	movwf	7	;volatile
  1553                           
  1554                           ;lcd.c: 57: toggle();
  1555  0AB2  120A  158A  22F5   	fcall	_toggle
  1556  0AB5  0008               	return
  1557  0AB6                     __end_of_set_cur_l_1:	
  1558                           
  1559                           	psect	text7
  1560  0AF5                     __ptext7:	
  1561 ;; *************** function _toggle *****************
  1562 ;; Defined at:
  1563 ;;		line 8 in file "lcd.c"
  1564 ;; Parameters:    Size  Location     Type
  1565 ;;		None
  1566 ;; Auto vars:     Size  Location     Type
  1567 ;;		None
  1568 ;; Return value:  Size  Location     Type
  1569 ;;		None               void
  1570 ;; Registers used:
  1571 ;;		wreg
  1572 ;; Tracked objects:
  1573 ;;		On entry : 0/0
  1574 ;;		On exit  : 0/0
  1575 ;;		Unchanged: 0/0
  1576 ;; Data sizes:     COMMON   BANK0   BANK1   BANK3   BANK2
  1577 ;;      Params:         0       0       0       0       0
  1578 ;;      Locals:         0       0       0       0       0
  1579 ;;      Temps:          0       0       2       0       0
  1580 ;;      Totals:         0       0       2       0       0
  1581 ;;Total ram usage:        2 bytes
  1582 ;; Hardware stack levels used:    1
  1583 ;; Hardware stack levels required when called:    5
  1584 ;; This function calls:
  1585 ;;		Nothing
  1586 ;; This function is called by:
  1587 ;;		_init_lcd
  1588 ;;		_set_cur_l_1
  1589 ;;		_set_cur_l_2
  1590 ;; This function uses a non-reentrant model
  1591 ;;
  1592                           
  1593                           
  1594                           ;psect for function _toggle
  1595  0AF5                     _toggle:	
  1596                           
  1597                           ;lcd.c: 9: RB7 = 1;
  1598                           
  1599                           ;incstack = 0
  1600                           ; Regs used in _toggle: [wreg]
  1601  0AF5  1283               	bcf	3,5	;RP0=0, select bank0
  1602  0AF6  1303               	bcf	3,6	;RP1=0, select bank0
  1603  0AF7  1786               	bsf	6,7	;volatile
  1604                           
  1605                           ;lcd.c: 10: _delay(2000);
  1606  0AF8  3003               	movlw	3
  1607  0AF9  1683               	bsf	3,5	;RP0=1, select bank1
  1608  0AFA  1303               	bcf	3,6	;RP1=0, select bank1
  1609  0AFB  00A1               	movwf	(??_toggle^(0+128)+1)
  1610  0AFC  3097               	movlw	151
  1611  0AFD  00A0               	movwf	??_toggle^(0+128)
  1612  0AFE                     u2737:	
  1613  0AFE  0BA0               	decfsz	??_toggle^(0+128),f
  1614  0AFF  2AFE               	goto	u2737
  1615  0B00  0BA1               	decfsz	(??_toggle^(0+128)+1),f
  1616  0B01  2AFE               	goto	u2737
  1617  0B02  2B03               	nop2
  1618                           
  1619                           ;lcd.c: 11: RB7 = 0;
  1620  0B03  1283               	bcf	3,5	;RP0=0, select bank0
  1621  0B04  1303               	bcf	3,6	;RP1=0, select bank0
  1622  0B05  1386               	bcf	6,7	;volatile
  1623  0B06  0008               	return
  1624  0B07                     __end_of_toggle:	
  1625                           
  1626                           	psect	text8
  1627  0025                     __ptext8:	
  1628 ;; *************** function _ISR *****************
  1629 ;; Defined at:
  1630 ;;		line 129 in file "main.c"
  1631 ;; Parameters:    Size  Location     Type
  1632 ;;		None
  1633 ;; Auto vars:     Size  Location     Type
  1634 ;;  buffer         10   44[BANK0 ] unsigned char [10]
  1635 ;; Return value:  Size  Location     Type
  1636 ;;		None               void
  1637 ;; Registers used:
  1638 ;;		wreg, fsr0l, fsr0h, status,2, status,0, btemp+1, pclath, cstack
  1639 ;; Tracked objects:
  1640 ;;		On entry : 0/0
  1641 ;;		On exit  : 0/0
  1642 ;;		Unchanged: 0/0
  1643 ;; Data sizes:     COMMON   BANK0   BANK1   BANK3   BANK2
  1644 ;;      Params:         0       0       0       0       0
  1645 ;;      Locals:         0      10       0       0       0
  1646 ;;      Temps:          0       7       0       0       0
  1647 ;;      Totals:         0      17       0       0       0
  1648 ;;Total ram usage:       17 bytes
  1649 ;; Hardware stack levels used:    1
  1650 ;; Hardware stack levels required when called:    4
  1651 ;; This function calls:
  1652 ;;		_FloatToString
  1653 ;;		_freq_to_string
  1654 ;;		_set_cur
  1655 ;;		_ReadVoltage
  1656 ;;		_write_str
  1657 ;;		_set_underline
  1658 ;;		_update_dds
  1659 ;;		i1_set_cur_l_1
  1660 ;; This function is called by:
  1661 ;;		Interrupt level 1
  1662 ;; This function uses a non-reentrant model
  1663 ;;
  1664                           
  1665                           
  1666                           ;psect for function _ISR
  1667  0025                     _ISR:	
  1668                           
  1669                           ;main.c: 131: char buffer [10];
  1670                           ;main.c: 133: if(INTCONbits.TMR0IF == 1)
  1671  0025  1D0B               	btfss	11,2	;volatile
  1672  0026  286E               	goto	i1l3040
  1673                           
  1674                           ;main.c: 134: {
  1675                           ;main.c: 136: set_cur(0xC0 + 11 );
  1676  0027  30CB               	movlw	203
  1677  0028  120A  158A  22B6   	fcall	_set_cur
      +       120A  118A         
  1678                           
  1679                           ;main.c: 137: FloatToString(buffer, ReadVoltage(0), 6);
  1680  002D  3000               	movlw	0
  1681  002E  1283               	bcf	3,5	;RP0=0, select bank0
  1682  002F  1303               	bcf	3,6	;RP1=0, select bank0
  1683  0030  00B0               	movwf	?_ReadVoltage
  1684  0031  3000               	movlw	0
  1685  0032  00B1               	movwf	?_ReadVoltage+1
  1686  0033  120A  118A  23F3   	fcall	_ReadVoltage
      +       120A  118A         
  1687  0038  1283               	bcf	3,5	;RP0=0, select bank0
  1688  0039  1303               	bcf	3,6	;RP1=0, select bank0
  1689  003A  0830               	movf	?_ReadVoltage,w
  1690  003B  00B7               	movwf	?_FloatToString
  1691  003C  0831               	movf	?_ReadVoltage+1,w
  1692  003D  00B8               	movwf	?_FloatToString+1
  1693  003E  0832               	movf	?_ReadVoltage+2,w
  1694  003F  00B9               	movwf	?_FloatToString+2
  1695  0040  3006               	movlw	6
  1696  0041  00C5               	movwf	??_ISR
  1697  0042  0845               	movf	??_ISR,w
  1698  0043  00BA               	movwf	?_FloatToString+3
  1699  0044  304C               	movlw	ISR@buffer& (0+255)
  1700  0045  120A  118A  21E0   	fcall	_FloatToString
      +       120A  118A         
  1701                           
  1702                           ;main.c: 138: write_str(buffer,4);
  1703  004A  304C               	movlw	ISR@buffer& (0+255)
  1704  004B  00F3               	movwf	?_write_str
  1705  004C  3000               	movlw	0
  1706  004D  00F4               	movwf	?_write_str+1
  1707  004E  3004               	movlw	4
  1708  004F  00F5               	movwf	?_write_str+2
  1709  0050  3000               	movlw	0
  1710  0051  00F6               	movwf	?_write_str+3
  1711  0052  120A  158A  25C5   	fcall	_write_str
      +       120A  118A         
  1712                           
  1713                           ;main.c: 139: write_str("V", 2);
  1714  0057  300B               	movlw	low (STR_1-__stringbase)
  1715  0058  00F3               	movwf	?_write_str
  1716  0059  3080               	movlw	128
  1717  005A  00F4               	movwf	?_write_str+1
  1718  005B  3002               	movlw	2
  1719  005C  00F5               	movwf	?_write_str+2
  1720  005D  3000               	movlw	0
  1721  005E  00F6               	movwf	?_write_str+3
  1722  005F  120A  158A  25C5   	fcall	_write_str
      +       120A  118A         
  1723                           
  1724                           ;main.c: 141: set_underline(0x80 + current_digit);
  1725  0064  1283               	bcf	3,5	;RP0=0, select bank0
  1726  0065  1303               	bcf	3,6	;RP1=0, select bank0
  1727  0066  085E               	movf	_current_digit,w
  1728  0067  3E80               	addlw	128
  1729  0068  120A  158A  23B7   	fcall	_set_underline
      +       120A  118A         
  1730                           
  1731                           ;main.c: 143: INTCONbits.TMR0IF = 0;
  1732  006D  110B               	bcf	11,2	;volatile
  1733  006E                     i1l3040:	
  1734                           
  1735                           ;main.c: 144: }
  1736                           ;main.c: 147: if(RB5 == 0 && freq <= 44000000)
  1737  006E  1283               	bcf	3,5	;RP0=0, select bank0
  1738  006F  1303               	bcf	3,6	;RP1=0, select bank0
  1739  0070  1A86               	btfsc	6,5	;volatile
  1740  0071  28D4               	goto	i1l3054
  1741  0072  3002               	movlw	2
  1742  0073  0259               	subwf	_freq+3,w
  1743  0074  1D03               	skipz
  1744  0075  2880               	goto	u266_25
  1745  0076  309F               	movlw	159
  1746  0077  0258               	subwf	_freq+2,w
  1747  0078  1D03               	skipz
  1748  0079  2880               	goto	u266_25
  1749  007A  3063               	movlw	99
  1750  007B  0257               	subwf	_freq+1,w
  1751  007C  1D03               	skipz
  1752  007D  2880               	goto	u266_25
  1753  007E  3001               	movlw	1
  1754  007F  0256               	subwf	_freq,w
  1755  0080                     u266_25:	
  1756  0080  1803               	skipnc
  1757  0081  28D4               	goto	i1l3054
  1758                           
  1759                           ;main.c: 148: {
  1760                           ;main.c: 150: freq+= step;
  1761  0082  085A               	movf	_step,w
  1762  0083  07D6               	addwf	_freq,f
  1763  0084  085B               	movf	_step+1,w
  1764  0085  1103               	clrz
  1765  0086  1803               	skipnc
  1766  0087  3E01               	addlw	1
  1767  0088  1D03               	btfss	3,2
  1768  0089  07D7               	addwf	_freq+1,f
  1769  008A  085C               	movf	_step+2,w
  1770  008B  1103               	clrz
  1771  008C  1803               	skipnc
  1772  008D  3E01               	addlw	1
  1773  008E  1D03               	btfss	3,2
  1774  008F  07D8               	addwf	_freq+2,f
  1775  0090  085D               	movf	_step+3,w
  1776  0091  1103               	clrz
  1777  0092  1803               	skipnc
  1778  0093  3E01               	addlw	1
  1779  0094  1D03               	btfss	3,2
  1780  0095  07D9               	addwf	_freq+3,f
  1781                           
  1782                           ;main.c: 151: update_dds(freq);
  1783  0096  0859               	movf	_freq+3,w
  1784  0097  00C4               	movwf	?_update_dds+3
  1785  0098  0858               	movf	_freq+2,w
  1786  0099  00C3               	movwf	?_update_dds+2
  1787  009A  0857               	movf	_freq+1,w
  1788  009B  00C2               	movwf	?_update_dds+1
  1789  009C  0856               	movf	_freq,w
  1790  009D  00C1               	movwf	?_update_dds
  1791  009E  120A  118A  2773   	fcall	_update_dds
      +       120A  118A         
  1792                           
  1793                           ;main.c: 153: set_cur_l_1();
  1794  00A3  120A  158A  22A4   	fcall	i1_set_cur_l_1
      +       120A  118A         
  1795                           
  1796                           ;main.c: 155: freq_to_string(buffer, freq);
  1797  00A8  1283               	bcf	3,5	;RP0=0, select bank0
  1798  00A9  1303               	bcf	3,6	;RP1=0, select bank0
  1799  00AA  0859               	movf	_freq+3,w
  1800  00AB  00A3               	movwf	?_freq_to_string+3
  1801  00AC  0858               	movf	_freq+2,w
  1802  00AD  00A2               	movwf	?_freq_to_string+2
  1803  00AE  0857               	movf	_freq+1,w
  1804  00AF  00A1               	movwf	?_freq_to_string+1
  1805  00B0  0856               	movf	_freq,w
  1806  00B1  00A0               	movwf	?_freq_to_string
  1807  00B2  304C               	movlw	ISR@buffer& (0+255)
  1808  00B3  120A  158A  2794   	fcall	_freq_to_string
      +       120A  118A         
  1809                           
  1810                           ;main.c: 156: write_str(buffer, 10);
  1811  00B8  304C               	movlw	ISR@buffer& (0+255)
  1812  00B9  00F3               	movwf	?_write_str
  1813  00BA  3000               	movlw	0
  1814  00BB  00F4               	movwf	?_write_str+1
  1815  00BC  300A               	movlw	10
  1816  00BD  00F5               	movwf	?_write_str+2
  1817  00BE  3000               	movlw	0
  1818  00BF  00F6               	movwf	?_write_str+3
  1819  00C0  120A  158A  25C5   	fcall	_write_str
      +       120A  118A         
  1820                           
  1821                           ;main.c: 157: _delay(1000000 );
  1822  00C5  3006               	movlw	6
  1823  00C6  1283               	bcf	3,5	;RP0=0, select bank0
  1824  00C7  1303               	bcf	3,6	;RP1=0, select bank0
  1825  00C8  00C7               	movwf	??_ISR+2
  1826  00C9  3013               	movlw	19
  1827  00CA  00C6               	movwf	??_ISR+1
  1828  00CB  30B1               	movlw	177
  1829  00CC  00C5               	movwf	??_ISR
  1830  00CD                     u274_27:	
  1831  00CD  0BC5               	decfsz	??_ISR,f
  1832  00CE  28CD               	goto	u274_27
  1833  00CF  0BC6               	decfsz	??_ISR+1,f
  1834  00D0  28CD               	goto	u274_27
  1835  00D1  0BC7               	decfsz	??_ISR+2,f
  1836  00D2  28CD               	goto	u274_27
  1837  00D3  28D4               	nop2
  1838  00D4                     i1l3054:	
  1839                           
  1840                           ;main.c: 161: }
  1841                           ;main.c: 163: if(RB4 == 0 && step <= freq)
  1842  00D4  1283               	bcf	3,5	;RP0=0, select bank0
  1843  00D5  1303               	bcf	3,6	;RP1=0, select bank0
  1844  00D6  1A06               	btfsc	6,4	;volatile
  1845  00D7  2934               	goto	i1l3068
  1846  00D8  085D               	movf	_step+3,w
  1847  00D9  0259               	subwf	_freq+3,w
  1848  00DA  1D03               	skipz
  1849  00DB  28E6               	goto	u269_25
  1850  00DC  085C               	movf	_step+2,w
  1851  00DD  0258               	subwf	_freq+2,w
  1852  00DE  1D03               	skipz
  1853  00DF  28E6               	goto	u269_25
  1854  00E0  085B               	movf	_step+1,w
  1855  00E1  0257               	subwf	_freq+1,w
  1856  00E2  1D03               	skipz
  1857  00E3  28E6               	goto	u269_25
  1858  00E4  085A               	movf	_step,w
  1859  00E5  0256               	subwf	_freq,w
  1860  00E6                     u269_25:	
  1861  00E6  1C03               	skipc
  1862  00E7  2934               	goto	i1l3068
  1863                           
  1864                           ;main.c: 164: {
  1865                           ;main.c: 165: freq-= step;
  1866  00E8  085A               	movf	_step,w
  1867  00E9  02D6               	subwf	_freq,f
  1868  00EA  085B               	movf	_step+1,w
  1869  00EB  1C03               	skipc
  1870  00EC  0F5B               	incfsz	_step+1,w
  1871  00ED  02D7               	subwf	_freq+1,f
  1872  00EE  085C               	movf	_step+2,w
  1873  00EF  1C03               	skipc
  1874  00F0  0F5C               	incfsz	_step+2,w
  1875  00F1  02D8               	subwf	_freq+2,f
  1876  00F2  085D               	movf	_step+3,w
  1877  00F3  1C03               	skipc
  1878  00F4  0F5D               	incfsz	_step+3,w
  1879  00F5  02D9               	subwf	_freq+3,f
  1880                           
  1881                           ;main.c: 166: update_dds(freq);
  1882  00F6  0859               	movf	_freq+3,w
  1883  00F7  00C4               	movwf	?_update_dds+3
  1884  00F8  0858               	movf	_freq+2,w
  1885  00F9  00C3               	movwf	?_update_dds+2
  1886  00FA  0857               	movf	_freq+1,w
  1887  00FB  00C2               	movwf	?_update_dds+1
  1888  00FC  0856               	movf	_freq,w
  1889  00FD  00C1               	movwf	?_update_dds
  1890  00FE  120A  118A  2773   	fcall	_update_dds
      +       120A  118A         
  1891                           
  1892                           ;main.c: 168: set_cur_l_1();
  1893  0103  120A  158A  22A4   	fcall	i1_set_cur_l_1
      +       120A  118A         
  1894                           
  1895                           ;main.c: 170: freq_to_string(buffer, freq);
  1896  0108  1283               	bcf	3,5	;RP0=0, select bank0
  1897  0109  1303               	bcf	3,6	;RP1=0, select bank0
  1898  010A  0859               	movf	_freq+3,w
  1899  010B  00A3               	movwf	?_freq_to_string+3
  1900  010C  0858               	movf	_freq+2,w
  1901  010D  00A2               	movwf	?_freq_to_string+2
  1902  010E  0857               	movf	_freq+1,w
  1903  010F  00A1               	movwf	?_freq_to_string+1
  1904  0110  0856               	movf	_freq,w
  1905  0111  00A0               	movwf	?_freq_to_string
  1906  0112  304C               	movlw	ISR@buffer& (0+255)
  1907  0113  120A  158A  2794   	fcall	_freq_to_string
      +       120A  118A         
  1908                           
  1909                           ;main.c: 172: write_str(buffer, 10);
  1910  0118  304C               	movlw	ISR@buffer& (0+255)
  1911  0119  00F3               	movwf	?_write_str
  1912  011A  3000               	movlw	0
  1913  011B  00F4               	movwf	?_write_str+1
  1914  011C  300A               	movlw	10
  1915  011D  00F5               	movwf	?_write_str+2
  1916  011E  3000               	movlw	0
  1917  011F  00F6               	movwf	?_write_str+3
  1918  0120  120A  158A  25C5   	fcall	_write_str
      +       120A  118A         
  1919                           
  1920                           ;main.c: 173: _delay(1000000 );
  1921  0125  3006               	movlw	6
  1922  0126  1283               	bcf	3,5	;RP0=0, select bank0
  1923  0127  1303               	bcf	3,6	;RP1=0, select bank0
  1924  0128  00C7               	movwf	??_ISR+2
  1925  0129  3013               	movlw	19
  1926  012A  00C6               	movwf	??_ISR+1
  1927  012B  30B1               	movlw	177
  1928  012C  00C5               	movwf	??_ISR
  1929  012D                     u275_27:	
  1930  012D  0BC5               	decfsz	??_ISR,f
  1931  012E  292D               	goto	u275_27
  1932  012F  0BC6               	decfsz	??_ISR+1,f
  1933  0130  292D               	goto	u275_27
  1934  0131  0BC7               	decfsz	??_ISR+2,f
  1935  0132  292D               	goto	u275_27
  1936  0133  2934               	nop2
  1937  0134                     i1l3068:	
  1938                           
  1939                           ;main.c: 177: }
  1940                           ;main.c: 179: if(RB3 == 0)
  1941  0134  1283               	bcf	3,5	;RP0=0, select bank0
  1942  0135  1303               	bcf	3,6	;RP1=0, select bank0
  1943  0136  1D86               	btfss	6,3	;volatile
  1944  0137  2982               	goto	i1l3088
  1945  0138  29D3               	goto	i1l86
  1946  0139                     i1l3072:	
  1947                           ;main.c: 184: {
  1948                           ;main.c: 185: case 1:
  1949                           
  1950                           ;main.c: 180: {
  1951                           ;main.c: 183: switch(step)
  1952                           
  1953                           
  1954                           ;main.c: 186: step = 10;
  1955  0139  3000               	movlw	0
  1956  013A  00DD               	movwf	_step+3
  1957  013B  3000               	movlw	0
  1958  013C  00DC               	movwf	_step+2
  1959  013D  3000               	movlw	0
  1960  013E  00DB               	movwf	_step+1
  1961  013F  300A               	movlw	10
  1962  0140  00DA               	movwf	_step
  1963                           
  1964                           ;main.c: 187: current_digit = 8;
  1965  0141  3008               	movlw	8
  1966  0142  297E               	goto	L7
  1967  0143                     i1l3074:	
  1968                           ;main.c: 189: case 10:
  1969                           
  1970                           ;main.c: 188: break;
  1971                           
  1972                           
  1973                           ;main.c: 190: step = 100;
  1974  0143  3000               	movlw	0
  1975  0144  00DD               	movwf	_step+3
  1976  0145  3000               	movlw	0
  1977  0146  00DC               	movwf	_step+2
  1978  0147  3000               	movlw	0
  1979  0148  00DB               	movwf	_step+1
  1980  0149  3064               	movlw	100
  1981  014A  00DA               	movwf	_step
  1982                           
  1983                           ;main.c: 191: current_digit = 7;
  1984  014B  3007               	movlw	7
  1985  014C  297E               	goto	L7
  1986  014D                     i1l3076:	
  1987                           ;main.c: 193: case 100:
  1988                           
  1989                           ;main.c: 192: break;
  1990                           
  1991                           
  1992                           ;main.c: 194: step = 1000;
  1993  014D  3000               	movlw	0
  1994  014E  00DD               	movwf	_step+3
  1995  014F  3000               	movlw	0
  1996  0150  00DC               	movwf	_step+2
  1997  0151  3003               	movlw	3
  1998  0152  00DB               	movwf	_step+1
  1999  0153  30E8               	movlw	232
  2000  0154  00DA               	movwf	_step
  2001                           
  2002                           ;main.c: 195: current_digit = 5;
  2003  0155  3005               	movlw	5
  2004  0156  297E               	goto	L7
  2005  0157                     i1l3078:	
  2006                           ;main.c: 197: case 1000:
  2007                           
  2008                           ;main.c: 196: break;
  2009                           
  2010                           
  2011                           ;main.c: 198: step = 10000;
  2012  0157  3000               	movlw	0
  2013  0158  00DD               	movwf	_step+3
  2014  0159  3000               	movlw	0
  2015  015A  00DC               	movwf	_step+2
  2016  015B  3027               	movlw	39
  2017  015C  00DB               	movwf	_step+1
  2018  015D  3010               	movlw	16
  2019  015E  00DA               	movwf	_step
  2020                           
  2021                           ;main.c: 199: current_digit = 4;
  2022  015F  3004               	movlw	4
  2023  0160  297E               	goto	L7
  2024  0161                     i1l3080:	
  2025                           ;main.c: 201: case 10000:
  2026                           
  2027                           ;main.c: 200: break;
  2028                           
  2029                           
  2030                           ;main.c: 202: step = 100000;
  2031  0161  3000               	movlw	0
  2032  0162  00DD               	movwf	_step+3
  2033  0163  3001               	movlw	1
  2034  0164  00DC               	movwf	_step+2
  2035  0165  3086               	movlw	134
  2036  0166  00DB               	movwf	_step+1
  2037  0167  30A0               	movlw	160
  2038  0168  00DA               	movwf	_step
  2039                           
  2040                           ;main.c: 203: current_digit = 3;
  2041  0169  3003               	movlw	3
  2042  016A  297E               	goto	L7
  2043  016B                     i1l3082:	
  2044                           ;main.c: 205: case 100000:
  2045                           
  2046                           ;main.c: 204: break;
  2047                           
  2048                           
  2049                           ;main.c: 206: step = 1000000;
  2050  016B  3000               	movlw	0
  2051  016C  00DD               	movwf	_step+3
  2052  016D  300F               	movlw	15
  2053  016E  00DC               	movwf	_step+2
  2054  016F  3042               	movlw	66
  2055  0170  00DB               	movwf	_step+1
  2056  0171  3040               	movlw	64
  2057  0172  00DA               	movwf	_step
  2058                           
  2059                           ;main.c: 207: current_digit = 1;
  2060  0173  3001               	movlw	1
  2061  0174  297E               	goto	L7
  2062  0175                     i1l3084:	
  2063                           ;main.c: 209: case 1000000:
  2064                           
  2065                           ;main.c: 208: break;
  2066                           
  2067  0175                     i1l3086:	
  2068                           ;main.c: 213: default:
  2069                           
  2070                           ;main.c: 212: break;
  2071                           
  2072                           ;main.c: 211: current_digit = 9;
  2073                           
  2074                           ;main.c: 210: step = 1;
  2075                           
  2076                           
  2077                           ;main.c: 214: step = 1;
  2078  0175  3000               	movlw	0
  2079  0176  00DD               	movwf	_step+3
  2080  0177  3000               	movlw	0
  2081  0178  00DC               	movwf	_step+2
  2082  0179  3000               	movlw	0
  2083  017A  00DB               	movwf	_step+1
  2084  017B  3001               	movlw	1
  2085  017C  00DA               	movwf	_step
  2086                           
  2087                           ;main.c: 215: current_digit = 9;
  2088  017D  3009               	movlw	9
  2089  017E                     L7:	
  2090  017E  00DE               	movwf	_current_digit
  2091  017F  3000               	movlw	0
  2092  0180  00DF               	movwf	_current_digit+1
  2093                           
  2094                           ;main.c: 217: }
  2095  0181  29C6               	goto	i1l3090
  2096  0182                     i1l3088:	
  2097                           
  2098                           ; Switch on 2 bytes has been partitioned into a top level switch of size 1, and 4 sub-sw
      +                          itches
  2099                           ; Switch size 1, requested type "space"
  2100                           ; Number of cases is 1, Range of values is 0 to 0
  2101                           ; switch strategies available:
  2102                           ; Name         Instructions Cycles
  2103                           ; simple_byte            4     3 (average)
  2104                           ; direct_byte           11     8 (fixed)
  2105                           ; jumptable            260     6 (fixed)
  2106                           ;	Chosen strategy is simple_byte
  2107  0182  085D               	movf	_step+3,w
  2108  0183  3A00               	xorlw	0	; case 0
  2109  0184  1903               	skipnz
  2110  0185  29BB               	goto	i1l3422
  2111  0186  2975               	goto	i1l3086
  2112  0187                     i1l3416:	
  2113                           
  2114                           ; Switch on 2 bytes has been partitioned into a top level switch of size 1, and 3 sub-sw
      +                          itches
  2115                           ; Switch size 1, requested type "space"
  2116                           ; Number of cases is 3, Range of values is 0 to 39
  2117                           ; switch strategies available:
  2118                           ; Name         Instructions Cycles
  2119                           ; simple_byte           10     6 (average)
  2120                           ; direct_byte          128     8 (fixed)
  2121                           ; jumptable            260     6 (fixed)
  2122                           ;	Chosen strategy is simple_byte
  2123  0187  085B               	movf	_step+1,w
  2124  0188  3A00               	xorlw	0	; case 0
  2125  0189  1903               	skipnz
  2126  018A  2992               	goto	i1l3424
  2127  018B  3A03               	xorlw	3	; case 3
  2128  018C  1903               	skipnz
  2129  018D  299D               	goto	i1l3426
  2130  018E  3A24               	xorlw	36	; case 39
  2131  018F  1903               	skipnz
  2132  0190  29A2               	goto	i1l3428
  2133  0191  2975               	goto	i1l3086
  2134  0192                     i1l3424:	
  2135                           
  2136                           ; Switch size 1, requested type "space"
  2137                           ; Number of cases is 3, Range of values is 1 to 100
  2138                           ; switch strategies available:
  2139                           ; Name         Instructions Cycles
  2140                           ; simple_byte           10     6 (average)
  2141                           ; jumptable            263     9 (fixed)
  2142                           ;	Chosen strategy is simple_byte
  2143  0192  085A               	movf	_step,w
  2144  0193  3A01               	xorlw	1	; case 1
  2145  0194  1903               	skipnz
  2146  0195  2939               	goto	i1l3072
  2147  0196  3A0B               	xorlw	11	; case 10
  2148  0197  1903               	skipnz
  2149  0198  2943               	goto	i1l3074
  2150  0199  3A6E               	xorlw	110	; case 100
  2151  019A  1903               	skipnz
  2152  019B  294D               	goto	i1l3076
  2153  019C  2975               	goto	i1l3086
  2154  019D                     i1l3426:	
  2155                           
  2156                           ; Switch size 1, requested type "space"
  2157                           ; Number of cases is 1, Range of values is 232 to 232
  2158                           ; switch strategies available:
  2159                           ; Name         Instructions Cycles
  2160                           ; simple_byte            4     3 (average)
  2161                           ; direct_byte           14    11 (fixed)
  2162                           ; jumptable            263     9 (fixed)
  2163                           ;	Chosen strategy is simple_byte
  2164  019D  085A               	movf	_step,w
  2165  019E  3AE8               	xorlw	232	; case 232
  2166  019F  1903               	skipnz
  2167  01A0  2957               	goto	i1l3078
  2168  01A1  2975               	goto	i1l3086
  2169  01A2                     i1l3428:	
  2170                           
  2171                           ; Switch size 1, requested type "space"
  2172                           ; Number of cases is 1, Range of values is 16 to 16
  2173                           ; switch strategies available:
  2174                           ; Name         Instructions Cycles
  2175                           ; simple_byte            4     3 (average)
  2176                           ; direct_byte           14    11 (fixed)
  2177                           ; jumptable            263     9 (fixed)
  2178                           ;	Chosen strategy is simple_byte
  2179  01A2  085A               	movf	_step,w
  2180  01A3  3A10               	xorlw	16	; case 16
  2181  01A4  1903               	skipnz
  2182  01A5  2961               	goto	i1l3080
  2183  01A6  2975               	goto	i1l3086
  2184  01A7                     i1l3418:	
  2185                           
  2186                           ; Switch on 2 bytes has been partitioned into a top level switch of size 1, and 1 sub-sw
      +                          itches
  2187                           ; Switch size 1, requested type "space"
  2188                           ; Number of cases is 1, Range of values is 134 to 134
  2189                           ; switch strategies available:
  2190                           ; Name         Instructions Cycles
  2191                           ; simple_byte            4     3 (average)
  2192                           ; direct_byte           14    11 (fixed)
  2193                           ; jumptable            263     9 (fixed)
  2194                           ;	Chosen strategy is simple_byte
  2195  01A7  085B               	movf	_step+1,w
  2196  01A8  3A86               	xorlw	134	; case 134
  2197  01A9  1903               	skipnz
  2198  01AA  29AC               	goto	i1l3430
  2199  01AB  2975               	goto	i1l3086
  2200  01AC                     i1l3430:	
  2201                           
  2202                           ; Switch size 1, requested type "space"
  2203                           ; Number of cases is 1, Range of values is 160 to 160
  2204                           ; switch strategies available:
  2205                           ; Name         Instructions Cycles
  2206                           ; simple_byte            4     3 (average)
  2207                           ; direct_byte           14    11 (fixed)
  2208                           ; jumptable            263     9 (fixed)
  2209                           ;	Chosen strategy is simple_byte
  2210  01AC  085A               	movf	_step,w
  2211  01AD  3AA0               	xorlw	160	; case 160
  2212  01AE  1903               	skipnz
  2213  01AF  296B               	goto	i1l3082
  2214  01B0  2975               	goto	i1l3086
  2215  01B1                     i1l3420:	
  2216                           
  2217                           ; Switch on 2 bytes has been partitioned into a top level switch of size 1, and 1 sub-sw
      +                          itches
  2218                           ; Switch size 1, requested type "space"
  2219                           ; Number of cases is 1, Range of values is 66 to 66
  2220                           ; switch strategies available:
  2221                           ; Name         Instructions Cycles
  2222                           ; simple_byte            4     3 (average)
  2223                           ; direct_byte           14    11 (fixed)
  2224                           ; jumptable            263     9 (fixed)
  2225                           ;	Chosen strategy is simple_byte
  2226  01B1  085B               	movf	_step+1,w
  2227  01B2  3A42               	xorlw	66	; case 66
  2228  01B3  1903               	skipnz
  2229  01B4  29B6               	goto	i1l3432
  2230  01B5  2975               	goto	i1l3086
  2231  01B6                     i1l3432:	
  2232                           
  2233                           ; Switch size 1, requested type "space"
  2234                           ; Number of cases is 1, Range of values is 64 to 64
  2235                           ; switch strategies available:
  2236                           ; Name         Instructions Cycles
  2237                           ; simple_byte            4     3 (average)
  2238                           ; direct_byte           14    11 (fixed)
  2239                           ; jumptable            263     9 (fixed)
  2240                           ;	Chosen strategy is simple_byte
  2241  01B6  085A               	movf	_step,w
  2242  01B7  3A40               	xorlw	64	; case 64
  2243  01B8  1903               	skipnz
  2244  01B9  2975               	goto	i1l3084
  2245  01BA  2975               	goto	i1l3086
  2246  01BB                     i1l3422:	
  2247                           
  2248                           ; Switch size 1, requested type "space"
  2249                           ; Number of cases is 3, Range of values is 0 to 15
  2250                           ; switch strategies available:
  2251                           ; Name         Instructions Cycles
  2252                           ; simple_byte           10     6 (average)
  2253                           ; direct_byte           56     8 (fixed)
  2254                           ; jumptable            260     6 (fixed)
  2255                           ;	Chosen strategy is simple_byte
  2256  01BB  085C               	movf	_step+2,w
  2257  01BC  3A00               	xorlw	0	; case 0
  2258  01BD  1903               	skipnz
  2259  01BE  2987               	goto	i1l3416
  2260  01BF  3A01               	xorlw	1	; case 1
  2261  01C0  1903               	skipnz
  2262  01C1  29A7               	goto	i1l3418
  2263  01C2  3A0E               	xorlw	14	; case 15
  2264  01C3  1903               	skipnz
  2265  01C4  29B1               	goto	i1l3420
  2266  01C5  2975               	goto	i1l3086
  2267  01C6                     i1l3090:	
  2268                           
  2269                           ;main.c: 221: _delay(5000000);
  2270  01C6  301A               	movlw	26
  2271  01C7  00C7               	movwf	??_ISR+2
  2272  01C8  305E               	movlw	94
  2273  01C9  00C6               	movwf	??_ISR+1
  2274  01CA  3086               	movlw	134
  2275  01CB  00C5               	movwf	??_ISR
  2276  01CC                     u276_27:	
  2277  01CC  0BC5               	decfsz	??_ISR,f
  2278  01CD  29CC               	goto	u276_27
  2279  01CE  0BC6               	decfsz	??_ISR+1,f
  2280  01CF  29CC               	goto	u276_27
  2281  01D0  0BC7               	decfsz	??_ISR+2,f
  2282  01D1  29CC               	goto	u276_27
  2283  01D2  0000               	nop
  2284  01D3                     i1l86:	
  2285  01D3  1283               	bcf	3,5	;RP0=0, select bank0
  2286  01D4  1303               	bcf	3,6	;RP1=0, select bank0
  2287  01D5  084B               	movf	??_ISR+6,w
  2288  01D6  00FF               	movwf	127
  2289  01D7  084A               	movf	??_ISR+5,w
  2290  01D8  008A               	movwf	10
  2291  01D9  0849               	movf	??_ISR+4,w
  2292  01DA  0084               	movwf	4
  2293  01DB  0E48               	swapf	(??_ISR+3)^0,w
  2294  01DC  0083               	movwf	3
  2295  01DD  0EFE               	swapf	126,f
  2296  01DE  0E7E               	swapf	126,w
  2297  01DF  0009               	retfie
  2298  01E0                     __end_of_ISR:	
  2299                           
  2300                           	psect	intentry
  2301  0004                     __pintentry:	
  2302                           ;incstack = 0
  2303                           ; Regs used in _ISR: [wreg-fsr0h+status,2+status,0+btemp+1+pclath+cstack]
  2304                           
  2305  0004                     interrupt_function:	
  2306  007E                     saved_w	set	btemp
  2307  0004  00FE               	movwf	btemp
  2308  0005  0E03               	swapf	3,w
  2309  0006  1283               	bcf	3,5	;RP0=0, select bank0
  2310  0007  1303               	bcf	3,6	;RP1=0, select bank0
  2311  0008  00C8               	movwf	??_ISR+3
  2312  0009  0804               	movf	4,w
  2313  000A  00C9               	movwf	??_ISR+4
  2314  000B  080A               	movf	10,w
  2315  000C  00CA               	movwf	??_ISR+5
  2316  000D  087F               	movf	btemp+1,w
  2317  000E  00CB               	movwf	??_ISR+6
  2318  000F  120A  118A  2825   	ljmp	_ISR
  2319                           
  2320                           	psect	text9
  2321  0AA4                     __ptext9:	
  2322 ;; *************** function i1_set_cur_l_1 *****************
  2323 ;; Defined at:
  2324 ;;		line 54 in file "lcd.c"
  2325 ;; Parameters:    Size  Location     Type
  2326 ;;		None
  2327 ;; Auto vars:     Size  Location     Type
  2328 ;;		None
  2329 ;; Return value:  Size  Location     Type
  2330 ;;		None               void
  2331 ;; Registers used:
  2332 ;;		wreg, status,2, status,0, pclath, cstack
  2333 ;; Tracked objects:
  2334 ;;		On entry : 0/0
  2335 ;;		On exit  : 0/0
  2336 ;;		Unchanged: 0/0
  2337 ;; Data sizes:     COMMON   BANK0   BANK1   BANK3   BANK2
  2338 ;;      Params:         0       0       0       0       0
  2339 ;;      Locals:         0       0       0       0       0
  2340 ;;      Temps:          0       0       0       0       0
  2341 ;;      Totals:         0       0       0       0       0
  2342 ;;Total ram usage:        0 bytes
  2343 ;; Hardware stack levels used:    1
  2344 ;; Hardware stack levels required when called:    1
  2345 ;; This function calls:
  2346 ;;		i1_toggle
  2347 ;; This function is called by:
  2348 ;;		_ISR
  2349 ;; This function uses a non-reentrant model
  2350 ;;
  2351                           
  2352                           
  2353                           ;psect for function i1_set_cur_l_1
  2354  0AA4                     i1_set_cur_l_1:	
  2355                           
  2356                           ;lcd.c: 55: RB6 = 0;
  2357                           
  2358                           ;incstack = 0
  2359                           ; Regs used in i1_set_cur_l_1: [wreg+status,2+status,0+pclath+cstack]
  2360  0AA4  1283               	bcf	3,5	;RP0=0, select bank0
  2361  0AA5  1303               	bcf	3,6	;RP1=0, select bank0
  2362  0AA6  1306               	bcf	6,6	;volatile
  2363                           
  2364                           ;lcd.c: 56: PORTC = 0X80;
  2365  0AA7  3080               	movlw	128
  2366  0AA8  0087               	movwf	7	;volatile
  2367                           
  2368                           ;lcd.c: 57: toggle();
  2369  0AA9  120A  158A  22D4   	fcall	i1_toggle
  2370  0AAC  0008               	return
  2371  0AAD                     __end_ofi1_set_cur_l_1:	
  2372                           
  2373                           	psect	text10
  2374  0773                     __ptext10:	
  2375 ;; *************** function _update_dds *****************
  2376 ;; Defined at:
  2377 ;;		line 102 in file "dds.c"
  2378 ;; Parameters:    Size  Location     Type
  2379 ;;  frequency       4   33[BANK0 ] unsigned long 
  2380 ;; Auto vars:     Size  Location     Type
  2381 ;;		None
  2382 ;; Return value:  Size  Location     Type
  2383 ;;		None               void
  2384 ;; Registers used:
  2385 ;;		wreg, status,2, status,0, btemp+1, pclath, cstack
  2386 ;; Tracked objects:
  2387 ;;		On entry : 0/0
  2388 ;;		On exit  : 0/0
  2389 ;;		Unchanged: 0/0
  2390 ;; Data sizes:     COMMON   BANK0   BANK1   BANK3   BANK2
  2391 ;;      Params:         0       4       0       0       0
  2392 ;;      Locals:         0       0       0       0       0
  2393 ;;      Temps:          0       0       0       0       0
  2394 ;;      Totals:         0       4       0       0       0
  2395 ;;Total ram usage:        4 bytes
  2396 ;; Hardware stack levels used:    1
  2397 ;; Hardware stack levels required when called:    3
  2398 ;; This function calls:
  2399 ;;		_frequencyUpdate
  2400 ;;		_load_freq
  2401 ;;		_calculate_frequency
  2402 ;;		i1_dataUpdate
  2403 ;; This function is called by:
  2404 ;;		_ISR
  2405 ;; This function uses a non-reentrant model
  2406 ;;
  2407                           
  2408                           
  2409                           ;psect for function _update_dds
  2410  0773                     _update_dds:	
  2411                           
  2412                           ;dds.c: 103: frequencyUpdate();
  2413                           
  2414                           ;incstack = 0
  2415                           ; Regs used in _update_dds: [wreg+status,2+status,0+btemp+1+pclath+cstack]
  2416  0773  120A  158A  228F   	fcall	_frequencyUpdate
      +       120A  118A         
  2417                           
  2418                           ;dds.c: 105: load_freq(calculate_frequency(frequency));
  2419  0778  1283               	bcf	3,5	;RP0=0, select bank0
  2420  0779  1303               	bcf	3,6	;RP1=0, select bank0
  2421  077A  0844               	movf	update_dds@frequency+3,w
  2422  077B  00B3               	movwf	?_calculate_frequency+3
  2423  077C  0843               	movf	update_dds@frequency+2,w
  2424  077D  00B2               	movwf	?_calculate_frequency+2
  2425  077E  0842               	movf	update_dds@frequency+1,w
  2426  077F  00B1               	movwf	?_calculate_frequency+1
  2427  0780  0841               	movf	update_dds@frequency,w
  2428  0781  00B0               	movwf	?_calculate_frequency
  2429  0782  120A  158A  253B   	fcall	_calculate_frequency
      +       120A  118A         
  2430  0787  1283               	bcf	3,5	;RP0=0, select bank0
  2431  0788  1303               	bcf	3,6	;RP1=0, select bank0
  2432  0789  0833               	movf	?_calculate_frequency+3,w
  2433  078A  00BA               	movwf	?_load_freq+3
  2434  078B  0832               	movf	?_calculate_frequency+2,w
  2435  078C  00B9               	movwf	?_load_freq+2
  2436  078D  0831               	movf	?_calculate_frequency+1,w
  2437  078E  00B8               	movwf	?_load_freq+1
  2438  078F  0830               	movf	?_calculate_frequency,w
  2439  0790  00B7               	movwf	?_load_freq
  2440  0791  120A  158A  24FD   	fcall	_load_freq
      +       120A  118A         
  2441                           
  2442                           ;dds.c: 110: dataUpdate(0);
  2443  0796  3000               	movlw	0
  2444  0797  00F0               	movwf	?i1_dataUpdate
  2445  0798  3000               	movlw	0
  2446  0799  00F1               	movwf	?i1_dataUpdate+1
  2447  079A  120A  118A  27E2   	fcall	i1_dataUpdate
      +       120A  118A         
  2448                           
  2449                           ;dds.c: 111: dataUpdate(0);
  2450  079F  3000               	movlw	0
  2451  07A0  00F0               	movwf	?i1_dataUpdate
  2452  07A1  3000               	movlw	0
  2453  07A2  00F1               	movwf	?i1_dataUpdate+1
  2454  07A3  120A  118A  27E2   	fcall	i1_dataUpdate
      +       120A  118A         
  2455                           
  2456                           ;dds.c: 112: dataUpdate(0);
  2457  07A8  3000               	movlw	0
  2458  07A9  00F0               	movwf	?i1_dataUpdate
  2459  07AA  3000               	movlw	0
  2460  07AB  00F1               	movwf	?i1_dataUpdate+1
  2461  07AC  120A  118A  27E2   	fcall	i1_dataUpdate
      +       120A  118A         
  2462                           
  2463                           ;dds.c: 113: dataUpdate(0);
  2464  07B1  3000               	movlw	0
  2465  07B2  00F0               	movwf	?i1_dataUpdate
  2466  07B3  3000               	movlw	0
  2467  07B4  00F1               	movwf	?i1_dataUpdate+1
  2468  07B5  120A  118A  27E2   	fcall	i1_dataUpdate
      +       120A  118A         
  2469                           
  2470                           ;dds.c: 114: dataUpdate(0);
  2471  07BA  3000               	movlw	0
  2472  07BB  00F0               	movwf	?i1_dataUpdate
  2473  07BC  3000               	movlw	0
  2474  07BD  00F1               	movwf	?i1_dataUpdate+1
  2475  07BE  120A  118A  27E2   	fcall	i1_dataUpdate
      +       120A  118A         
  2476                           
  2477                           ;dds.c: 115: dataUpdate(0);
  2478  07C3  3000               	movlw	0
  2479  07C4  00F0               	movwf	?i1_dataUpdate
  2480  07C5  3000               	movlw	0
  2481  07C6  00F1               	movwf	?i1_dataUpdate+1
  2482  07C7  120A  118A  27E2   	fcall	i1_dataUpdate
      +       120A  118A         
  2483                           
  2484                           ;dds.c: 116: dataUpdate(0);
  2485  07CC  3000               	movlw	0
  2486  07CD  00F0               	movwf	?i1_dataUpdate
  2487  07CE  3000               	movlw	0
  2488  07CF  00F1               	movwf	?i1_dataUpdate+1
  2489  07D0  120A  118A  27E2   	fcall	i1_dataUpdate
      +       120A  118A         
  2490                           
  2491                           ;dds.c: 117: dataUpdate(0);
  2492  07D5  3000               	movlw	0
  2493  07D6  00F0               	movwf	?i1_dataUpdate
  2494  07D7  3000               	movlw	0
  2495  07D8  00F1               	movwf	?i1_dataUpdate+1
  2496  07D9  120A  118A  27E2   	fcall	i1_dataUpdate
      +       120A  118A         
  2497                           
  2498                           ;dds.c: 118: frequencyUpdate();
  2499  07DE  120A  158A  228F   	fcall	_frequencyUpdate
  2500  07E1  0008               	return
  2501  07E2                     __end_of_update_dds:	
  2502                           
  2503                           	psect	text11
  2504  0D3B                     __ptext11:	
  2505 ;; *************** function _calculate_frequency *****************
  2506 ;; Defined at:
  2507 ;;		line 90 in file "dds.c"
  2508 ;; Parameters:    Size  Location     Type
  2509 ;;  frequency       4   16[BANK0 ] unsigned long 
  2510 ;; Auto vars:     Size  Location     Type
  2511 ;;  tmp             3   20[BANK0 ] unsigned long 
  2512 ;; Return value:  Size  Location     Type
  2513 ;;                  4   16[BANK0 ] long 
  2514 ;; Registers used:
  2515 ;;		wreg, status,2, status,0, pclath, cstack
  2516 ;; Tracked objects:
  2517 ;;		On entry : 0/0
  2518 ;;		On exit  : 0/0
  2519 ;;		Unchanged: 0/0
  2520 ;; Data sizes:     COMMON   BANK0   BANK1   BANK3   BANK2
  2521 ;;      Params:         0       4       0       0       0
  2522 ;;      Locals:         0       3       0       0       0
  2523 ;;      Temps:          0       0       0       0       0
  2524 ;;      Totals:         0       7       0       0       0
  2525 ;;Total ram usage:        7 bytes
  2526 ;; Hardware stack levels used:    1
  2527 ;; Hardware stack levels required when called:    2
  2528 ;; This function calls:
  2529 ;;		___ftmul
  2530 ;;		___fttol
  2531 ;;		___lltoft
  2532 ;; This function is called by:
  2533 ;;		_update_dds
  2534 ;; This function uses a non-reentrant model
  2535 ;;
  2536                           
  2537                           
  2538                           ;psect for function _calculate_frequency
  2539  0D3B                     _calculate_frequency:	
  2540                           
  2541                           ;dds.c: 92: double tmp = 34.36*frequency;
  2542                           
  2543                           ;incstack = 0
  2544                           ; Regs used in _calculate_frequency: [wreg+status,2+status,0+pclath+cstack]
  2545  0D3B  3071               	movlw	113
  2546  0D3C  1283               	bcf	3,5	;RP0=0, select bank0
  2547  0D3D  1303               	bcf	3,6	;RP1=0, select bank0
  2548  0D3E  00A0               	movwf	?___ftmul
  2549  0D3F  3009               	movlw	9
  2550  0D40  00A1               	movwf	?___ftmul+1
  2551  0D41  3042               	movlw	66
  2552  0D42  00A2               	movwf	?___ftmul+2
  2553  0D43  0833               	movf	calculate_frequency@frequency+3,w
  2554  0D44  00FB               	movwf	?___lltoft+3
  2555  0D45  0832               	movf	calculate_frequency@frequency+2,w
  2556  0D46  00FA               	movwf	?___lltoft+2
  2557  0D47  0831               	movf	calculate_frequency@frequency+1,w
  2558  0D48  00F9               	movwf	?___lltoft+1
  2559  0D49  0830               	movf	calculate_frequency@frequency,w
  2560  0D4A  00F8               	movwf	?___lltoft
  2561  0D4B  120A  158A  2402   	fcall	___lltoft
      +       120A  158A         
  2562  0D50  0878               	movf	?___lltoft,w
  2563  0D51  1283               	bcf	3,5	;RP0=0, select bank0
  2564  0D52  1303               	bcf	3,6	;RP1=0, select bank0
  2565  0D53  00A3               	movwf	?___ftmul+3
  2566  0D54  0879               	movf	?___lltoft+1,w
  2567  0D55  00A4               	movwf	?___ftmul+4
  2568  0D56  087A               	movf	?___lltoft+2,w
  2569  0D57  00A5               	movwf	?___ftmul+5
  2570  0D58  120A  118A  24E0   	fcall	___ftmul
      +       120A  158A         
  2571  0D5D  1283               	bcf	3,5	;RP0=0, select bank0
  2572  0D5E  1303               	bcf	3,6	;RP1=0, select bank0
  2573  0D5F  0820               	movf	?___ftmul,w
  2574  0D60  00B4               	movwf	calculate_frequency@tmp
  2575  0D61  0821               	movf	?___ftmul+1,w
  2576  0D62  00B5               	movwf	calculate_frequency@tmp+1
  2577  0D63  0822               	movf	?___ftmul+2,w
  2578  0D64  00B6               	movwf	calculate_frequency@tmp+2
  2579                           
  2580                           ;dds.c: 95: return (long) tmp ;
  2581  0D65  0834               	movf	calculate_frequency@tmp,w
  2582  0D66  00F0               	movwf	?___fttol
  2583  0D67  0835               	movf	calculate_frequency@tmp+1,w
  2584  0D68  00F1               	movwf	?___fttol+1
  2585  0D69  0836               	movf	calculate_frequency@tmp+2,w
  2586  0D6A  00F2               	movwf	?___fttol+2
  2587  0D6B  120A  118A  2669   	fcall	___fttol
  2588  0D6E  0873               	movf	?___fttol+3,w
  2589  0D6F  1283               	bcf	3,5	;RP0=0, select bank0
  2590  0D70  1303               	bcf	3,6	;RP1=0, select bank0
  2591  0D71  00B3               	movwf	?_calculate_frequency+3
  2592  0D72  0872               	movf	?___fttol+2,w
  2593  0D73  00B2               	movwf	?_calculate_frequency+2
  2594  0D74  0871               	movf	?___fttol+1,w
  2595  0D75  00B1               	movwf	?_calculate_frequency+1
  2596  0D76  0870               	movf	?___fttol,w
  2597  0D77  00B0               	movwf	?_calculate_frequency
  2598  0D78  0008               	return
  2599  0D79                     __end_of_calculate_frequency:	
  2600                           
  2601                           	psect	text12
  2602  0C02                     __ptext12:	
  2603 ;; *************** function ___lltoft *****************
  2604 ;; Defined at:
  2605 ;;		line 36 in file "C:\Program Files (x86)\Microchip\xc8\v1.21\sources\pic\lltoft.c"
  2606 ;; Parameters:    Size  Location     Type
  2607 ;;  c               4    8[COMMON] unsigned long 
  2608 ;; Auto vars:     Size  Location     Type
  2609 ;;  exp             1   13[COMMON] unsigned char 
  2610 ;; Return value:  Size  Location     Type
  2611 ;;                  3    8[COMMON] float 
  2612 ;; Registers used:
  2613 ;;		wreg, status,2, status,0, pclath, cstack
  2614 ;; Tracked objects:
  2615 ;;		On entry : 0/0
  2616 ;;		On exit  : 0/0
  2617 ;;		Unchanged: 0/0
  2618 ;; Data sizes:     COMMON   BANK0   BANK1   BANK3   BANK2
  2619 ;;      Params:         4       0       0       0       0
  2620 ;;      Locals:         1       0       0       0       0
  2621 ;;      Temps:          1       0       0       0       0
  2622 ;;      Totals:         6       0       0       0       0
  2623 ;;Total ram usage:        6 bytes
  2624 ;; Hardware stack levels used:    1
  2625 ;; Hardware stack levels required when called:    1
  2626 ;; This function calls:
  2627 ;;		___ftpack
  2628 ;; This function is called by:
  2629 ;;		_calculate_frequency
  2630 ;; This function uses a non-reentrant model
  2631 ;;
  2632                           
  2633                           
  2634                           ;psect for function ___lltoft
  2635  0C02                     ___lltoft:	
  2636                           
  2637                           ;incstack = 0
  2638                           ; Regs used in ___lltoft: [wreg+status,2+status,0+pclath+cstack]
  2639  0C02  308E               	movlw	142
  2640  0C03  00FC               	movwf	??___lltoft
  2641  0C04  087C               	movf	??___lltoft,w
  2642  0C05  00FD               	movwf	___lltoft@exp
  2643  0C06                     i1l2854:	
  2644  0C06  30FF               	movlw	255
  2645  0C07  057B               	andwf	___lltoft@c+3,w
  2646  0C08  1903               	btfsc	3,2
  2647  0C09  2C18               	goto	i1l2856
  2648  0C0A  3001               	movlw	1
  2649  0C0B                     u251_25:	
  2650  0C0B  1003               	clrc
  2651  0C0C  0CFB               	rrf	___lltoft@c+3,f
  2652  0C0D  0CFA               	rrf	___lltoft@c+2,f
  2653  0C0E  0CF9               	rrf	___lltoft@c+1,f
  2654  0C0F  0CF8               	rrf	___lltoft@c,f
  2655  0C10  3EFF               	addlw	-1
  2656  0C11  1D03               	skipz
  2657  0C12  2C0B               	goto	u251_25
  2658  0C13  3001               	movlw	1
  2659  0C14  00FC               	movwf	??___lltoft
  2660  0C15  087C               	movf	??___lltoft,w
  2661  0C16  07FD               	addwf	___lltoft@exp,f
  2662  0C17  2C06               	goto	i1l2854
  2663  0C18                     i1l2856:	
  2664  0C18  0878               	movf	___lltoft@c,w
  2665  0C19  00F0               	movwf	?___ftpack
  2666  0C1A  0879               	movf	___lltoft@c+1,w
  2667  0C1B  00F1               	movwf	?___ftpack+1
  2668  0C1C  087A               	movf	___lltoft@c+2,w
  2669  0C1D  00F2               	movwf	?___ftpack+2
  2670  0C1E  087D               	movf	___lltoft@exp,w
  2671  0C1F  00FC               	movwf	??___lltoft
  2672  0C20  087C               	movf	??___lltoft,w
  2673  0C21  00F3               	movwf	?___ftpack+3
  2674  0C22  01F4               	clrf	?___ftpack+4
  2675  0C23  120A  158A  272C   	fcall	___ftpack
  2676  0C26  0870               	movf	?___ftpack,w
  2677  0C27  00F8               	movwf	?___lltoft
  2678  0C28  0871               	movf	?___ftpack+1,w
  2679  0C29  00F9               	movwf	?___lltoft+1
  2680  0C2A  0872               	movf	?___ftpack+2,w
  2681  0C2B  00FA               	movwf	?___lltoft+2
  2682  0C2C  0008               	return
  2683  0C2D                     __end_of___lltoft:	
  2684                           
  2685                           	psect	text13
  2686  0CFD                     __ptext13:	
  2687 ;; *************** function _load_freq *****************
  2688 ;; Defined at:
  2689 ;;		line 75 in file "dds.c"
  2690 ;; Parameters:    Size  Location     Type
  2691 ;;  freq            4   23[BANK0 ] unsigned long 
  2692 ;; Auto vars:     Size  Location     Type
  2693 ;;  i               2   31[BANK0 ] int 
  2694 ;; Return value:  Size  Location     Type
  2695 ;;		None               void
  2696 ;; Registers used:
  2697 ;;		wreg, status,2, status,0, btemp+1, pclath, cstack
  2698 ;; Tracked objects:
  2699 ;;		On entry : 0/0
  2700 ;;		On exit  : 0/0
  2701 ;;		Unchanged: 0/0
  2702 ;; Data sizes:     COMMON   BANK0   BANK1   BANK3   BANK2
  2703 ;;      Params:         0       4       0       0       0
  2704 ;;      Locals:         0       2       0       0       0
  2705 ;;      Temps:          0       4       0       0       0
  2706 ;;      Totals:         0      10       0       0       0
  2707 ;;Total ram usage:       10 bytes
  2708 ;; Hardware stack levels used:    1
  2709 ;; Hardware stack levels required when called:    1
  2710 ;; This function calls:
  2711 ;;		i1_dataUpdate
  2712 ;; This function is called by:
  2713 ;;		_update_dds
  2714 ;; This function uses a non-reentrant model
  2715 ;;
  2716                           
  2717                           
  2718                           ;psect for function _load_freq
  2719  0CFD                     _load_freq:	
  2720                           
  2721                           ;dds.c: 76: int i;
  2722                           ;dds.c: 77: for(i = 0; i < 32; i++)
  2723                           
  2724                           ;incstack = 0
  2725                           ; Regs used in _load_freq: [wreg+status,2+status,0+btemp+1+pclath+cstack]
  2726  0CFD  1283               	bcf	3,5	;RP0=0, select bank0
  2727  0CFE  1303               	bcf	3,6	;RP1=0, select bank0
  2728  0CFF  01BF               	clrf	load_freq@i
  2729  0D00  01C0               	clrf	load_freq@i+1
  2730  0D01                     L8:	
  2731  0D01  0840               	movf	load_freq@i+1,w
  2732  0D02  3A80               	xorlw	128
  2733  0D03  00FF               	movwf	127
  2734  0D04  3080               	movlw	128
  2735  0D05  027F               	subwf	127,w
  2736  0D06  1D03               	skipz
  2737  0D07  2D0A               	goto	u255_25
  2738  0D08  3020               	movlw	32
  2739  0D09  023F               	subwf	load_freq@i,w
  2740  0D0A                     u255_25:	
  2741  0D0A  1803               	btfsc	3,0
  2742  0D0B  0008               	return
  2743                           
  2744                           ;dds.c: 78: {
  2745                           ;dds.c: 79: dataUpdate(freq & 1);
  2746  0D0C  3001               	movlw	1
  2747  0D0D  1283               	bcf	3,5	;RP0=0, select bank0
  2748  0D0E  1303               	bcf	3,6	;RP1=0, select bank0
  2749  0D0F  0537               	andwf	load_freq@freq,w
  2750  0D10  00F0               	movwf	?i1_dataUpdate
  2751  0D11  3000               	movlw	0
  2752  0D12  0538               	andwf	load_freq@freq+1,w
  2753  0D13  00F1               	movwf	?i1_dataUpdate+1
  2754  0D14  120A  118A  27E2   	fcall	i1_dataUpdate
      +       120A  158A         
  2755                           
  2756                           ;dds.c: 80: freq = freq >> 1;
  2757  0D19  1283               	bcf	3,5	;RP0=0, select bank0
  2758  0D1A  1303               	bcf	3,6	;RP1=0, select bank0
  2759  0D1B  0837               	movf	load_freq@freq,w
  2760  0D1C  00BB               	movwf	??_load_freq
  2761  0D1D  0838               	movf	load_freq@freq+1,w
  2762  0D1E  00BC               	movwf	??_load_freq+1
  2763  0D1F  0839               	movf	load_freq@freq+2,w
  2764  0D20  00BD               	movwf	??_load_freq+2
  2765  0D21  083A               	movf	load_freq@freq+3,w
  2766  0D22  00BE               	movwf	??_load_freq+3
  2767  0D23  3001               	movlw	1
  2768  0D24                     u256_25:	
  2769  0D24  1003               	clrc
  2770  0D25  0CBE               	rrf	??_load_freq+3,f
  2771  0D26  0CBD               	rrf	??_load_freq+2,f
  2772  0D27  0CBC               	rrf	??_load_freq+1,f
  2773  0D28  0CBB               	rrf	??_load_freq,f
  2774  0D29  3EFF               	addlw	-1
  2775  0D2A  1D03               	skipz
  2776  0D2B  2D24               	goto	u256_25
  2777  0D2C  083E               	movf	??_load_freq+3,w
  2778  0D2D  00BA               	movwf	load_freq@freq+3
  2779  0D2E  083D               	movf	??_load_freq+2,w
  2780  0D2F  00B9               	movwf	load_freq@freq+2
  2781  0D30  083C               	movf	??_load_freq+1,w
  2782  0D31  00B8               	movwf	load_freq@freq+1
  2783  0D32  083B               	movf	??_load_freq,w
  2784  0D33  00B7               	movwf	load_freq@freq
  2785  0D34  3001               	movlw	1
  2786  0D35  07BF               	addwf	load_freq@i,f
  2787  0D36  1803               	skipnc
  2788  0D37  0AC0               	incf	load_freq@i+1,f
  2789  0D38  3000               	movlw	0
  2790  0D39  07C0               	addwf	load_freq@i+1,f
  2791  0D3A  2D01               	goto	L8
  2792  0D3B                     __end_of_load_freq:	
  2793                           
  2794                           	psect	text14
  2795  07E2                     __ptext14:	
  2796 ;; *************** function i1_dataUpdate *****************
  2797 ;; Defined at:
  2798 ;;		line 59 in file "dds.c"
  2799 ;; Parameters:    Size  Location     Type
  2800 ;;  sig             2    0[COMMON] int 
  2801 ;; Auto vars:     Size  Location     Type
  2802 ;;		None
  2803 ;; Return value:  Size  Location     Type
  2804 ;;		None               void
  2805 ;; Registers used:
  2806 ;;		wreg
  2807 ;; Tracked objects:
  2808 ;;		On entry : 0/0
  2809 ;;		On exit  : 0/0
  2810 ;;		Unchanged: 0/0
  2811 ;; Data sizes:     COMMON   BANK0   BANK1   BANK3   BANK2
  2812 ;;      Params:         2       0       0       0       0
  2813 ;;      Locals:         0       0       0       0       0
  2814 ;;      Temps:          1       0       0       0       0
  2815 ;;      Totals:         3       0       0       0       0
  2816 ;;Total ram usage:        3 bytes
  2817 ;; Hardware stack levels used:    1
  2818 ;; This function calls:
  2819 ;;		Nothing
  2820 ;; This function is called by:
  2821 ;;		_load_freq
  2822 ;;		_update_dds
  2823 ;; This function uses a non-reentrant model
  2824 ;;
  2825                           
  2826                           
  2827                           ;psect for function i1_dataUpdate
  2828  07E2                     i1_dataUpdate:	
  2829                           
  2830                           ;dds.c: 60: RB2 = sig;
  2831                           
  2832                           ;incstack = 0
  2833                           ; Regs used in i1_dataUpdate: [wreg]
  2834  07E2  1C70               	btfss	i1dataUpdate@sig,0
  2835  07E3  2FE8               	goto	u253_20
  2836  07E4  1283               	bcf	3,5	;RP0=0, select bank0
  2837  07E5  1303               	bcf	3,6	;RP1=0, select bank0
  2838  07E6  1506               	bsf	6,2	;volatile
  2839  07E7  2FEB               	goto	i1l2868
  2840  07E8                     u253_20:	
  2841  07E8  1283               	bcf	3,5	;RP0=0, select bank0
  2842  07E9  1303               	bcf	3,6	;RP1=0, select bank0
  2843  07EA  1106               	bcf	6,2	;volatile
  2844  07EB                     i1l2868:	
  2845                           
  2846                           ;dds.c: 61: _delay(1000);
  2847  07EB  30F9               	movlw	249
  2848  07EC  00F2               	movwf	??i1_dataUpdate
  2849  07ED                     u277_27:	
  2850  07ED  0000               	nop
  2851  07EE  0BF2               	decfsz	??i1_dataUpdate,f
  2852  07EF  2FED               	goto	u277_27
  2853  07F0  2FF1               	nop2	;nop
  2854  07F1  0000               	nop
  2855                           
  2856                           ;dds.c: 62: RB0 = 1;
  2857  07F2  1283               	bcf	3,5	;RP0=0, select bank0
  2858  07F3  1303               	bcf	3,6	;RP1=0, select bank0
  2859  07F4  1406               	bsf	6,0	;volatile
  2860                           
  2861                           ;dds.c: 64: RB0 = 0;
  2862  07F5  1006               	bcf	6,0	;volatile
  2863                           
  2864                           ;dds.c: 65: RB2 = 0;
  2865  07F6  1106               	bcf	6,2	;volatile
  2866                           
  2867                           ;dds.c: 66: _delay(1000);
  2868  07F7  30F9               	movlw	249
  2869  07F8  00F2               	movwf	??i1_dataUpdate
  2870  07F9                     u278_27:	
  2871  07F9  0000               	nop
  2872  07FA  0BF2               	decfsz	??i1_dataUpdate,f
  2873  07FB  2FF9               	goto	u278_27
  2874  07FC  2FFD               	nop2	;nop
  2875  07FD  0000               	nop
  2876  07FE  0008               	return
  2877  07FF                     __end_ofi1_dataUpdate:	
  2878                           
  2879                           	psect	text15
  2880  0A8F                     __ptext15:	
  2881 ;; *************** function _frequencyUpdate *****************
  2882 ;; Defined at:
  2883 ;;		line 44 in file "dds.c"
  2884 ;; Parameters:    Size  Location     Type
  2885 ;;		None
  2886 ;; Auto vars:     Size  Location     Type
  2887 ;;		None
  2888 ;; Return value:  Size  Location     Type
  2889 ;;		None               void
  2890 ;; Registers used:
  2891 ;;		None
  2892 ;; Tracked objects:
  2893 ;;		On entry : 0/0
  2894 ;;		On exit  : 0/0
  2895 ;;		Unchanged: 0/0
  2896 ;; Data sizes:     COMMON   BANK0   BANK1   BANK3   BANK2
  2897 ;;      Params:         0       0       0       0       0
  2898 ;;      Locals:         0       0       0       0       0
  2899 ;;      Temps:          0       0       0       0       0
  2900 ;;      Totals:         0       0       0       0       0
  2901 ;;Total ram usage:        0 bytes
  2902 ;; Hardware stack levels used:    1
  2903 ;; This function calls:
  2904 ;;		Nothing
  2905 ;; This function is called by:
  2906 ;;		_update_dds
  2907 ;; This function uses a non-reentrant model
  2908 ;;
  2909                           
  2910                           
  2911                           ;psect for function _frequencyUpdate
  2912  0A8F                     _frequencyUpdate:	
  2913                           
  2914                           ;dds.c: 45: RB1 = 1;
  2915                           
  2916                           ;incstack = 0
  2917                           ; Regs used in _frequencyUpdate: []
  2918  0A8F  1283               	bcf	3,5	;RP0=0, select bank0
  2919  0A90  1303               	bcf	3,6	;RP1=0, select bank0
  2920  0A91  1486               	bsf	6,1	;volatile
  2921                           
  2922                           ;dds.c: 50: RB1 = 0;
  2923  0A92  1086               	bcf	6,1	;volatile
  2924  0A93  0008               	return
  2925  0A94                     __end_of_frequencyUpdate:	
  2926                           
  2927                           	psect	text16
  2928  0BB7                     __ptext16:	
  2929 ;; *************** function _set_underline *****************
  2930 ;; Defined at:
  2931 ;;		line 78 in file "lcd.c"
  2932 ;; Parameters:    Size  Location     Type
  2933 ;;  offset          1    wreg     unsigned char 
  2934 ;; Auto vars:     Size  Location     Type
  2935 ;;  offset          1    4[COMMON] unsigned char 
  2936 ;; Return value:  Size  Location     Type
  2937 ;;		None               void
  2938 ;; Registers used:
  2939 ;;		wreg, status,2, status,0, pclath, cstack
  2940 ;; Tracked objects:
  2941 ;;		On entry : 0/0
  2942 ;;		On exit  : 0/0
  2943 ;;		Unchanged: 0/0
  2944 ;; Data sizes:     COMMON   BANK0   BANK1   BANK3   BANK2
  2945 ;;      Params:         0       0       0       0       0
  2946 ;;      Locals:         1       0       0       0       0
  2947 ;;      Temps:          2       0       0       0       0
  2948 ;;      Totals:         3       0       0       0       0
  2949 ;;Total ram usage:        3 bytes
  2950 ;; Hardware stack levels used:    1
  2951 ;; Hardware stack levels required when called:    1
  2952 ;; This function calls:
  2953 ;;		i1_toggle
  2954 ;; This function is called by:
  2955 ;;		_ISR
  2956 ;; This function uses a non-reentrant model
  2957 ;;
  2958                           
  2959                           
  2960                           ;psect for function _set_underline
  2961  0BB7                     _set_underline:	
  2962                           
  2963                           ;incstack = 0
  2964                           ; Regs used in _set_underline: [wreg+status,2+status,0+pclath+cstack]
  2965                           ;set_underline@offset stored from wreg
  2966  0BB7  00F4               	movwf	set_underline@offset
  2967                           
  2968                           ;lcd.c: 79: RB6 = 0;
  2969  0BB8  1283               	bcf	3,5	;RP0=0, select bank0
  2970  0BB9  1303               	bcf	3,6	;RP1=0, select bank0
  2971  0BBA  1306               	bcf	6,6	;volatile
  2972                           
  2973                           ;lcd.c: 80: PORTC = offset;
  2974  0BBB  0874               	movf	set_underline@offset,w
  2975  0BBC  0087               	movwf	7	;volatile
  2976                           
  2977                           ;lcd.c: 81: toggle();
  2978  0BBD  120A  158A  22D4   	fcall	i1_toggle
      +       120A  158A         
  2979                           
  2980                           ;lcd.c: 82: PORTC = 0X0F;
  2981  0BC2  300F               	movlw	15
  2982  0BC3  1283               	bcf	3,5	;RP0=0, select bank0
  2983  0BC4  1303               	bcf	3,6	;RP1=0, select bank0
  2984  0BC5  0087               	movwf	7	;volatile
  2985                           
  2986                           ;lcd.c: 83: toggle();
  2987  0BC6  120A  158A  22D4   	fcall	i1_toggle
      +       120A  158A         
  2988                           
  2989                           ;lcd.c: 84: _delay(100000);
  2990  0BCB  3082               	movlw	130
  2991  0BCC  00F3               	movwf	??_set_underline+1
  2992  0BCD  30DD               	movlw	221
  2993  0BCE  00F2               	movwf	??_set_underline
  2994  0BCF                     u279_27:	
  2995  0BCF  0BF2               	decfsz	??_set_underline,f
  2996  0BD0  2BCF               	goto	u279_27
  2997  0BD1  0BF3               	decfsz	??_set_underline+1,f
  2998  0BD2  2BCF               	goto	u279_27
  2999  0BD3  2BD4               	nop2
  3000                           
  3001                           ;lcd.c: 85: PORTC = 0X0C;
  3002  0BD4  300C               	movlw	12
  3003  0BD5  1283               	bcf	3,5	;RP0=0, select bank0
  3004  0BD6  1303               	bcf	3,6	;RP1=0, select bank0
  3005  0BD7  0087               	movwf	7	;volatile
  3006                           
  3007                           ;lcd.c: 86: toggle();
  3008  0BD8  120A  158A  22D4   	fcall	i1_toggle
  3009  0BDB  0008               	return
  3010  0BDC                     __end_of_set_underline:	
  3011                           
  3012                           	psect	text17
  3013  0DC5                     __ptext17:	
  3014 ;; *************** function _write_str *****************
  3015 ;; Defined at:
  3016 ;;		line 92 in file "lcd.c"
  3017 ;; Parameters:    Size  Location     Type
  3018 ;;  str             2    3[COMMON] PTR const unsigned char 
  3019 ;;		 -> STR_1(2), ISR@buffer(10), 
  3020 ;;  length          2    5[COMMON] int 
  3021 ;; Auto vars:     Size  Location     Type
  3022 ;;  i               2    8[COMMON] int 
  3023 ;; Return value:  Size  Location     Type
  3024 ;;		None               void
  3025 ;; Registers used:
  3026 ;;		wreg, fsr0l, fsr0h, status,2, status,0, btemp+1, pclath, cstack
  3027 ;; Tracked objects:
  3028 ;;		On entry : 0/0
  3029 ;;		On exit  : 0/0
  3030 ;;		Unchanged: 0/0
  3031 ;; Data sizes:     COMMON   BANK0   BANK1   BANK3   BANK2
  3032 ;;      Params:         4       0       0       0       0
  3033 ;;      Locals:         2       0       0       0       0
  3034 ;;      Temps:          1       0       0       0       0
  3035 ;;      Totals:         7       0       0       0       0
  3036 ;;Total ram usage:        7 bytes
  3037 ;; Hardware stack levels used:    1
  3038 ;; Hardware stack levels required when called:    2
  3039 ;; This function calls:
  3040 ;;		_write_char
  3041 ;; This function is called by:
  3042 ;;		_ISR
  3043 ;; This function uses a non-reentrant model
  3044 ;;
  3045                           
  3046                           
  3047                           ;psect for function _write_str
  3048  0DC5                     _write_str:	
  3049                           
  3050                           ;lcd.c: 93: int i;
  3051                           ;lcd.c: 94: for(i=0;i<length && str[i]!='\0';write_char(str[i]), i++);
  3052                           
  3053                           ;incstack = 0
  3054                           ; Regs used in _write_str: [wreg-fsr0h+status,2+status,0+btemp+1+pclath+cstack]
  3055  0DC5  01F8               	clrf	write_str@i
  3056  0DC6  01F9               	clrf	write_str@i+1
  3057  0DC7                     i1l2994:	
  3058  0DC7  0879               	movf	write_str@i+1,w
  3059  0DC8  3A80               	xorlw	128
  3060  0DC9  00F7               	movwf	??_write_str
  3061  0DCA  0876               	movf	write_str@length+1,w
  3062  0DCB  3A80               	xorlw	128
  3063  0DCC  0277               	subwf	??_write_str,w
  3064  0DCD  1D03               	skipz
  3065  0DCE  2DD1               	goto	u261_25
  3066  0DCF  0875               	movf	write_str@length,w
  3067  0DD0  0278               	subwf	write_str@i,w
  3068  0DD1                     u261_25:	
  3069  0DD1  1803               	skipnc
  3070  0DD2  2E0A               	goto	i1l3002
  3071  0DD3  0878               	movf	write_str@i,w
  3072  0DD4  0773               	addwf	write_str@str,w
  3073  0DD5  0084               	movwf	4
  3074  0DD6  0874               	movf	write_str@str+1,w
  3075  0DD7  1803               	skipnc
  3076  0DD8  0A74               	incf	write_str@str+1,w
  3077  0DD9  1283               	bcf	3,5	;RP0=0, select bank0
  3078  0DDA  1303               	bcf	3,6	;RP1=0, select bank0
  3079  0DDB  00FF               	movwf	127
  3080  0DDC  120A  158A  2000   	fcall	stringtab
      +       120A  158A         
  3081  0DE1  3800               	iorlw	0
  3082  0DE2  1903               	btfsc	3,2
  3083  0DE3  2E0A               	goto	i1l3002
  3084  0DE4  0878               	movf	write_str@i,w
  3085  0DE5  0773               	addwf	write_str@str,w
  3086  0DE6  0084               	movwf	4
  3087  0DE7  0874               	movf	write_str@str+1,w
  3088  0DE8  1803               	skipnc
  3089  0DE9  0A74               	incf	write_str@str+1,w
  3090  0DEA  1283               	bcf	3,5	;RP0=0, select bank0
  3091  0DEB  1303               	bcf	3,6	;RP1=0, select bank0
  3092  0DEC  00FF               	movwf	127
  3093  0DED  120A  158A  2000   	fcall	stringtab
      +       120A  158A         
  3094  0DF2  120A  158A  22C0   	fcall	_write_char
      +       120A  158A         
  3095  0DF7  3001               	movlw	1
  3096  0DF8  07F8               	addwf	write_str@i,f
  3097  0DF9  1803               	skipnc
  3098  0DFA  0AF9               	incf	write_str@i+1,f
  3099  0DFB  3000               	movlw	0
  3100  0DFC  07F9               	addwf	write_str@i+1,f
  3101  0DFD  2DC7               	goto	i1l2994
  3102  0DFE                     i1l2998:	
  3103                           ;lcd.c: 95: for(;i < length;i++, write_char(' '));
  3104                           
  3105  0DFE  3001               	movlw	1
  3106  0DFF  07F8               	addwf	write_str@i,f
  3107  0E00  1803               	skipnc
  3108  0E01  0AF9               	incf	write_str@i+1,f
  3109  0E02  3000               	movlw	0
  3110  0E03  07F9               	addwf	write_str@i+1,f
  3111  0E04  3020               	movlw	32
  3112  0E05  120A  158A  22C0   	fcall	_write_char
      +       120A  158A         
  3113  0E0A                     i1l3002:	
  3114  0E0A  0879               	movf	write_str@i+1,w
  3115  0E0B  3A80               	xorlw	128
  3116  0E0C  00F7               	movwf	??_write_str
  3117  0E0D  0876               	movf	write_str@length+1,w
  3118  0E0E  3A80               	xorlw	128
  3119  0E0F  0277               	subwf	??_write_str,w
  3120  0E10  1D03               	skipz
  3121  0E11  2E14               	goto	u263_25
  3122  0E12  0875               	movf	write_str@length,w
  3123  0E13  0278               	subwf	write_str@i,w
  3124  0E14                     u263_25:	
  3125  0E14  1803               	btfsc	3,0
  3126  0E15  0008               	return
  3127  0E16  2DFE               	goto	i1l2998
  3128  0E17                     __end_of_write_str:	
  3129                           
  3130                           	psect	text18
  3131  0AC0                     __ptext18:	
  3132 ;; *************** function _write_char *****************
  3133 ;; Defined at:
  3134 ;;		line 46 in file "lcd.c"
  3135 ;; Parameters:    Size  Location     Type
  3136 ;;  c               1    wreg     unsigned char 
  3137 ;; Auto vars:     Size  Location     Type
  3138 ;;  c               1    2[COMMON] unsigned char 
  3139 ;; Return value:  Size  Location     Type
  3140 ;;		None               void
  3141 ;; Registers used:
  3142 ;;		wreg, status,2, status,0, pclath, cstack
  3143 ;; Tracked objects:
  3144 ;;		On entry : 0/0
  3145 ;;		On exit  : 0/0
  3146 ;;		Unchanged: 0/0
  3147 ;; Data sizes:     COMMON   BANK0   BANK1   BANK3   BANK2
  3148 ;;      Params:         0       0       0       0       0
  3149 ;;      Locals:         1       0       0       0       0
  3150 ;;      Temps:          0       0       0       0       0
  3151 ;;      Totals:         1       0       0       0       0
  3152 ;;Total ram usage:        1 bytes
  3153 ;; Hardware stack levels used:    1
  3154 ;; Hardware stack levels required when called:    1
  3155 ;; This function calls:
  3156 ;;		i1_toggle
  3157 ;; This function is called by:
  3158 ;;		_write_str
  3159 ;; This function uses a non-reentrant model
  3160 ;;
  3161                           
  3162                           
  3163                           ;psect for function _write_char
  3164  0AC0                     _write_char:	
  3165                           
  3166                           ;incstack = 0
  3167                           ; Regs used in _write_char: [wreg+status,2+status,0+pclath+cstack]
  3168                           ;write_char@c stored from wreg
  3169  0AC0  00F2               	movwf	write_char@c
  3170                           
  3171                           ;lcd.c: 47: RB6 = 1;
  3172  0AC1  1283               	bcf	3,5	;RP0=0, select bank0
  3173  0AC2  1303               	bcf	3,6	;RP1=0, select bank0
  3174  0AC3  1706               	bsf	6,6	;volatile
  3175                           
  3176                           ;lcd.c: 48: PORTC = c;
  3177  0AC4  0872               	movf	write_char@c,w
  3178  0AC5  0087               	movwf	7	;volatile
  3179                           
  3180                           ;lcd.c: 49: toggle();
  3181  0AC6  120A  158A  22D4   	fcall	i1_toggle
  3182  0AC9  0008               	return
  3183  0ACA                     __end_of_write_char:	
  3184                           
  3185                           	psect	text19
  3186  03F3                     __ptext19:	
  3187 ;; *************** function _ReadVoltage *****************
  3188 ;; Defined at:
  3189 ;;		line 45 in file "adc.c"
  3190 ;; Parameters:    Size  Location     Type
  3191 ;;  ch              2   16[BANK0 ] int 
  3192 ;; Auto vars:     Size  Location     Type
  3193 ;;  adc_value       3   20[BANK0 ] float 
  3194 ;; Return value:  Size  Location     Type
  3195 ;;                  3   16[BANK0 ] float 
  3196 ;; Registers used:
  3197 ;;		wreg, status,2, status,0, btemp+1, pclath, cstack
  3198 ;; Tracked objects:
  3199 ;;		On entry : 0/0
  3200 ;;		On exit  : 0/0
  3201 ;;		Unchanged: 0/0
  3202 ;; Data sizes:     COMMON   BANK0   BANK1   BANK3   BANK2
  3203 ;;      Params:         0       3       0       0       0
  3204 ;;      Locals:         0       3       0       0       0
  3205 ;;      Temps:          0       1       0       0       0
  3206 ;;      Totals:         0       7       0       0       0
  3207 ;;Total ram usage:        7 bytes
  3208 ;; Hardware stack levels used:    1
  3209 ;; Hardware stack levels required when called:    2
  3210 ;; This function calls:
  3211 ;;		_ReadADC
  3212 ;;		___awtoft
  3213 ;;		___ftadd
  3214 ;;		___ftdiv
  3215 ;;		___ftmul
  3216 ;; This function is called by:
  3217 ;;		_ISR
  3218 ;; This function uses a non-reentrant model
  3219 ;;
  3220                           
  3221                           
  3222                           ;psect for function _ReadVoltage
  3223  03F3                     _ReadVoltage:	
  3224                           
  3225                           ;adc.c: 48: float adc_value=ReadADC(ch);
  3226                           
  3227                           ;incstack = 0
  3228                           ; Regs used in _ReadVoltage: [wreg+status,2+status,0+btemp+1+pclath+cstack]
  3229  03F3  1283               	bcf	3,5	;RP0=0, select bank0
  3230  03F4  1303               	bcf	3,6	;RP1=0, select bank0
  3231  03F5  0831               	movf	ReadVoltage@ch+1,w
  3232  03F6  01F1               	clrf	?_ReadADC+1
  3233  03F7  07F1               	addwf	?_ReadADC+1,f
  3234  03F8  0830               	movf	ReadVoltage@ch,w
  3235  03F9  01F0               	clrf	?_ReadADC
  3236  03FA  07F0               	addwf	?_ReadADC,f
  3237  03FB  120A  158A  242D   	fcall	_ReadADC
      +       120A  118A         
  3238  0400  0871               	movf	?_ReadADC+1,w
  3239  0401  01F9               	clrf	?___awtoft+1
  3240  0402  07F9               	addwf	?___awtoft+1,f
  3241  0403  0870               	movf	?_ReadADC,w
  3242  0404  01F8               	clrf	?___awtoft
  3243  0405  07F8               	addwf	?___awtoft,f
  3244  0406  120A  158A  232F   	fcall	___awtoft
      +       120A  118A         
  3245  040B  0878               	movf	?___awtoft,w
  3246  040C  1283               	bcf	3,5	;RP0=0, select bank0
  3247  040D  1303               	bcf	3,6	;RP1=0, select bank0
  3248  040E  00B4               	movwf	ReadVoltage@adc_value
  3249  040F  0879               	movf	?___awtoft+1,w
  3250  0410  00B5               	movwf	ReadVoltage@adc_value+1
  3251  0411  087A               	movf	?___awtoft+2,w
  3252  0412  00B6               	movwf	ReadVoltage@adc_value+2
  3253                           
  3254                           ;adc.c: 49: _delay(1000);
  3255  0413  30F9               	movlw	249
  3256  0414  00B3               	movwf	??_ReadVoltage
  3257  0415                     u280_27:	
  3258  0415  0000               	nop
  3259  0416  0BB3               	decfsz	??_ReadVoltage,f
  3260  0417  2C15               	goto	u280_27
  3261  0418  2C19               	nop2	;nop
  3262  0419  0000               	nop
  3263                           
  3264                           ;adc.c: 51: adc_value+=ReadADC(ch);
  3265  041A  1283               	bcf	3,5	;RP0=0, select bank0
  3266  041B  1303               	bcf	3,6	;RP1=0, select bank0
  3267  041C  0831               	movf	ReadVoltage@ch+1,w
  3268  041D  01F1               	clrf	?_ReadADC+1
  3269  041E  07F1               	addwf	?_ReadADC+1,f
  3270  041F  0830               	movf	ReadVoltage@ch,w
  3271  0420  01F0               	clrf	?_ReadADC
  3272  0421  07F0               	addwf	?_ReadADC,f
  3273  0422  120A  158A  242D   	fcall	_ReadADC
      +       120A  118A         
  3274  0427  0871               	movf	?_ReadADC+1,w
  3275  0428  01F9               	clrf	?___awtoft+1
  3276  0429  07F9               	addwf	?___awtoft+1,f
  3277  042A  0870               	movf	?_ReadADC,w
  3278  042B  01F8               	clrf	?___awtoft
  3279  042C  07F8               	addwf	?___awtoft,f
  3280  042D  120A  158A  232F   	fcall	___awtoft
      +       120A  118A         
  3281  0432  0878               	movf	?___awtoft,w
  3282  0433  1283               	bcf	3,5	;RP0=0, select bank0
  3283  0434  1303               	bcf	3,6	;RP1=0, select bank0
  3284  0435  00A1               	movwf	?___ftadd
  3285  0436  0879               	movf	?___awtoft+1,w
  3286  0437  00A2               	movwf	?___ftadd+1
  3287  0438  087A               	movf	?___awtoft+2,w
  3288  0439  00A3               	movwf	?___ftadd+2
  3289  043A  0834               	movf	ReadVoltage@adc_value,w
  3290  043B  00A4               	movwf	?___ftadd+3
  3291  043C  0835               	movf	ReadVoltage@adc_value+1,w
  3292  043D  00A5               	movwf	?___ftadd+4
  3293  043E  0836               	movf	ReadVoltage@adc_value+2,w
  3294  043F  00A6               	movwf	?___ftadd+5
  3295  0440  120A  118A  22EA   	fcall	___ftadd
      +       120A  118A         
  3296  0445  1283               	bcf	3,5	;RP0=0, select bank0
  3297  0446  1303               	bcf	3,6	;RP1=0, select bank0
  3298  0447  0821               	movf	?___ftadd,w
  3299  0448  00B4               	movwf	ReadVoltage@adc_value
  3300  0449  0822               	movf	?___ftadd+1,w
  3301  044A  00B5               	movwf	ReadVoltage@adc_value+1
  3302  044B  0823               	movf	?___ftadd+2,w
  3303  044C  00B6               	movwf	ReadVoltage@adc_value+2
  3304                           
  3305                           ;adc.c: 52: _delay(1000);
  3306  044D  30F9               	movlw	249
  3307  044E  00B3               	movwf	??_ReadVoltage
  3308  044F                     u281_27:	
  3309  044F  0000               	nop
  3310  0450  0BB3               	decfsz	??_ReadVoltage,f
  3311  0451  2C4F               	goto	u281_27
  3312  0452  2C53               	nop2	;nop
  3313  0453  0000               	nop
  3314                           
  3315                           ;adc.c: 54: adc_value+=ReadADC(ch);
  3316  0454  1283               	bcf	3,5	;RP0=0, select bank0
  3317  0455  1303               	bcf	3,6	;RP1=0, select bank0
  3318  0456  0831               	movf	ReadVoltage@ch+1,w
  3319  0457  01F1               	clrf	?_ReadADC+1
  3320  0458  07F1               	addwf	?_ReadADC+1,f
  3321  0459  0830               	movf	ReadVoltage@ch,w
  3322  045A  01F0               	clrf	?_ReadADC
  3323  045B  07F0               	addwf	?_ReadADC,f
  3324  045C  120A  158A  242D   	fcall	_ReadADC
      +       120A  118A         
  3325  0461  0871               	movf	?_ReadADC+1,w
  3326  0462  01F9               	clrf	?___awtoft+1
  3327  0463  07F9               	addwf	?___awtoft+1,f
  3328  0464  0870               	movf	?_ReadADC,w
  3329  0465  01F8               	clrf	?___awtoft
  3330  0466  07F8               	addwf	?___awtoft,f
  3331  0467  120A  158A  232F   	fcall	___awtoft
      +       120A  118A         
  3332  046C  0878               	movf	?___awtoft,w
  3333  046D  1283               	bcf	3,5	;RP0=0, select bank0
  3334  046E  1303               	bcf	3,6	;RP1=0, select bank0
  3335  046F  00A1               	movwf	?___ftadd
  3336  0470  0879               	movf	?___awtoft+1,w
  3337  0471  00A2               	movwf	?___ftadd+1
  3338  0472  087A               	movf	?___awtoft+2,w
  3339  0473  00A3               	movwf	?___ftadd+2
  3340  0474  0834               	movf	ReadVoltage@adc_value,w
  3341  0475  00A4               	movwf	?___ftadd+3
  3342  0476  0835               	movf	ReadVoltage@adc_value+1,w
  3343  0477  00A5               	movwf	?___ftadd+4
  3344  0478  0836               	movf	ReadVoltage@adc_value+2,w
  3345  0479  00A6               	movwf	?___ftadd+5
  3346  047A  120A  118A  22EA   	fcall	___ftadd
      +       120A  118A         
  3347  047F  1283               	bcf	3,5	;RP0=0, select bank0
  3348  0480  1303               	bcf	3,6	;RP1=0, select bank0
  3349  0481  0821               	movf	?___ftadd,w
  3350  0482  00B4               	movwf	ReadVoltage@adc_value
  3351  0483  0822               	movf	?___ftadd+1,w
  3352  0484  00B5               	movwf	ReadVoltage@adc_value+1
  3353  0485  0823               	movf	?___ftadd+2,w
  3354  0486  00B6               	movwf	ReadVoltage@adc_value+2
  3355                           
  3356                           ;adc.c: 55: _delay(1000);
  3357  0487  30F9               	movlw	249
  3358  0488  00B3               	movwf	??_ReadVoltage
  3359  0489                     u282_27:	
  3360  0489  0000               	nop
  3361  048A  0BB3               	decfsz	??_ReadVoltage,f
  3362  048B  2C89               	goto	u282_27
  3363  048C  2C8D               	nop2	;nop
  3364  048D  0000               	nop
  3365                           
  3366                           ;adc.c: 57: adc_value/=3;
  3367  048E  3000               	movlw	0
  3368  048F  00F8               	movwf	?___ftdiv
  3369  0490  3040               	movlw	64
  3370  0491  00F9               	movwf	?___ftdiv+1
  3371  0492  3040               	movlw	64
  3372  0493  00FA               	movwf	?___ftdiv+2
  3373  0494  1283               	bcf	3,5	;RP0=0, select bank0
  3374  0495  1303               	bcf	3,6	;RP1=0, select bank0
  3375  0496  0834               	movf	ReadVoltage@adc_value,w
  3376  0497  00FB               	movwf	?___ftdiv+3
  3377  0498  0835               	movf	ReadVoltage@adc_value+1,w
  3378  0499  00FC               	movwf	?___ftdiv+4
  3379  049A  0836               	movf	ReadVoltage@adc_value+2,w
  3380  049B  00FD               	movwf	?___ftdiv+5
  3381  049C  120A  118A  25B3   	fcall	___ftdiv
      +       120A  118A         
  3382  04A1  0878               	movf	?___ftdiv,w
  3383  04A2  1283               	bcf	3,5	;RP0=0, select bank0
  3384  04A3  1303               	bcf	3,6	;RP1=0, select bank0
  3385  04A4  00B4               	movwf	ReadVoltage@adc_value
  3386  04A5  0879               	movf	?___ftdiv+1,w
  3387  04A6  00B5               	movwf	ReadVoltage@adc_value+1
  3388  04A7  087A               	movf	?___ftdiv+2,w
  3389  04A8  00B6               	movwf	ReadVoltage@adc_value+2
  3390                           
  3391                           ;adc.c: 59: adc_value*=5;
  3392  04A9  3000               	movlw	0
  3393  04AA  00A0               	movwf	?___ftmul
  3394  04AB  30A0               	movlw	160
  3395  04AC  00A1               	movwf	?___ftmul+1
  3396  04AD  3040               	movlw	64
  3397  04AE  00A2               	movwf	?___ftmul+2
  3398  04AF  0834               	movf	ReadVoltage@adc_value,w
  3399  04B0  00A3               	movwf	?___ftmul+3
  3400  04B1  0835               	movf	ReadVoltage@adc_value+1,w
  3401  04B2  00A4               	movwf	?___ftmul+4
  3402  04B3  0836               	movf	ReadVoltage@adc_value+2,w
  3403  04B4  00A5               	movwf	?___ftmul+5
  3404  04B5  120A  118A  24E0   	fcall	___ftmul
      +       120A  118A         
  3405  04BA  1283               	bcf	3,5	;RP0=0, select bank0
  3406  04BB  1303               	bcf	3,6	;RP1=0, select bank0
  3407  04BC  0820               	movf	?___ftmul,w
  3408  04BD  00B4               	movwf	ReadVoltage@adc_value
  3409  04BE  0821               	movf	?___ftmul+1,w
  3410  04BF  00B5               	movwf	ReadVoltage@adc_value+1
  3411  04C0  0822               	movf	?___ftmul+2,w
  3412  04C1  00B6               	movwf	ReadVoltage@adc_value+2
  3413                           
  3414                           ;adc.c: 62: adc_value /= 1024;
  3415  04C2  3000               	movlw	0
  3416  04C3  00F8               	movwf	?___ftdiv
  3417  04C4  3080               	movlw	128
  3418  04C5  00F9               	movwf	?___ftdiv+1
  3419  04C6  3044               	movlw	68
  3420  04C7  00FA               	movwf	?___ftdiv+2
  3421  04C8  0834               	movf	ReadVoltage@adc_value,w
  3422  04C9  00FB               	movwf	?___ftdiv+3
  3423  04CA  0835               	movf	ReadVoltage@adc_value+1,w
  3424  04CB  00FC               	movwf	?___ftdiv+4
  3425  04CC  0836               	movf	ReadVoltage@adc_value+2,w
  3426  04CD  00FD               	movwf	?___ftdiv+5
  3427  04CE  120A  118A  25B3   	fcall	___ftdiv
  3428  04D1  0878               	movf	?___ftdiv,w
  3429  04D2  1283               	bcf	3,5	;RP0=0, select bank0
  3430  04D3  1303               	bcf	3,6	;RP1=0, select bank0
  3431  04D4  00B4               	movwf	ReadVoltage@adc_value
  3432  04D5  0879               	movf	?___ftdiv+1,w
  3433  04D6  00B5               	movwf	ReadVoltage@adc_value+1
  3434  04D7  087A               	movf	?___ftdiv+2,w
  3435  04D8  00B6               	movwf	ReadVoltage@adc_value+2
  3436                           
  3437                           ;adc.c: 64: return adc_value;
  3438  04D9  0834               	movf	ReadVoltage@adc_value,w
  3439  04DA  00B0               	movwf	?_ReadVoltage
  3440  04DB  0835               	movf	ReadVoltage@adc_value+1,w
  3441  04DC  00B1               	movwf	?_ReadVoltage+1
  3442  04DD  0836               	movf	ReadVoltage@adc_value+2,w
  3443  04DE  00B2               	movwf	?_ReadVoltage+2
  3444  04DF  0008               	return
  3445  04E0                     __end_of_ReadVoltage:	
  3446                           
  3447                           	psect	text20
  3448  05B3                     __ptext20:	
  3449 ;; *************** function ___ftdiv *****************
  3450 ;; Defined at:
  3451 ;;		line 50 in file "C:\Program Files (x86)\Microchip\xc8\v1.21\sources\pic\ftdiv.c"
  3452 ;; Parameters:    Size  Location     Type
  3453 ;;  f2              3    8[COMMON] float 
  3454 ;;  f1              3   11[COMMON] float 
  3455 ;; Auto vars:     Size  Location     Type
  3456 ;;  f3              3    5[BANK0 ] float 
  3457 ;;  sign            1    9[BANK0 ] unsigned char 
  3458 ;;  exp             1    8[BANK0 ] unsigned char 
  3459 ;;  cntr            1    4[BANK0 ] unsigned char 
  3460 ;; Return value:  Size  Location     Type
  3461 ;;                  3    8[COMMON] float 
  3462 ;; Registers used:
  3463 ;;		wreg, status,2, status,0, pclath, cstack
  3464 ;; Tracked objects:
  3465 ;;		On entry : 0/0
  3466 ;;		On exit  : 0/0
  3467 ;;		Unchanged: 0/0
  3468 ;; Data sizes:     COMMON   BANK0   BANK1   BANK3   BANK2
  3469 ;;      Params:         6       0       0       0       0
  3470 ;;      Locals:         0       6       0       0       0
  3471 ;;      Temps:          0       4       0       0       0
  3472 ;;      Totals:         6      10       0       0       0
  3473 ;;Total ram usage:       16 bytes
  3474 ;; Hardware stack levels used:    1
  3475 ;; Hardware stack levels required when called:    1
  3476 ;; This function calls:
  3477 ;;		___ftpack
  3478 ;; This function is called by:
  3479 ;;		_ReadVoltage
  3480 ;; This function uses a non-reentrant model
  3481 ;;
  3482                           
  3483                           
  3484                           ;psect for function ___ftdiv
  3485  05B3                     ___ftdiv:	
  3486                           
  3487                           ;incstack = 0
  3488                           ; Regs used in ___ftdiv: [wreg+status,2+status,0+pclath+cstack]
  3489  05B3  087B               	movf	___ftdiv@f1,w
  3490  05B4  1283               	bcf	3,5	;RP0=0, select bank0
  3491  05B5  1303               	bcf	3,6	;RP1=0, select bank0
  3492  05B6  00A0               	movwf	??___ftdiv
  3493  05B7  087C               	movf	___ftdiv@f1+1,w
  3494  05B8  00A1               	movwf	??___ftdiv+1
  3495  05B9  087D               	movf	___ftdiv@f1+2,w
  3496  05BA  00A2               	movwf	??___ftdiv+2
  3497  05BB  1003               	clrc
  3498  05BC  0D21               	rlf	??___ftdiv+1,w
  3499  05BD  0D22               	rlf	??___ftdiv+2,w
  3500  05BE  00A3               	movwf	??___ftdiv+3
  3501  05BF  0823               	movf	??___ftdiv+3,w
  3502  05C0  00A8               	movwf	___ftdiv@exp
  3503  05C1  08A8               	movf	___ftdiv@exp,f
  3504  05C2  1D03               	skipz
  3505  05C3  2DCB               	goto	i1l2756
  3506  05C4  3000               	movlw	0
  3507  05C5  00F8               	movwf	?___ftdiv
  3508  05C6  3000               	movlw	0
  3509  05C7  00F9               	movwf	?___ftdiv+1
  3510  05C8  3000               	movlw	0
  3511  05C9  00FA               	movwf	?___ftdiv+2
  3512  05CA  0008               	return
  3513  05CB                     i1l2756:	
  3514  05CB  0878               	movf	___ftdiv@f2,w
  3515  05CC  00A0               	movwf	??___ftdiv
  3516  05CD  0879               	movf	___ftdiv@f2+1,w
  3517  05CE  00A1               	movwf	??___ftdiv+1
  3518  05CF  087A               	movf	___ftdiv@f2+2,w
  3519  05D0  00A2               	movwf	??___ftdiv+2
  3520  05D1  1003               	clrc
  3521  05D2  0D21               	rlf	??___ftdiv+1,w
  3522  05D3  0D22               	rlf	??___ftdiv+2,w
  3523  05D4  00A3               	movwf	??___ftdiv+3
  3524  05D5  0823               	movf	??___ftdiv+3,w
  3525  05D6  00A9               	movwf	___ftdiv@sign
  3526  05D7  08A9               	movf	___ftdiv@sign,f
  3527  05D8  1D03               	skipz
  3528  05D9  2DE1               	goto	i1l2762
  3529  05DA  3000               	movlw	0
  3530  05DB  00F8               	movwf	?___ftdiv
  3531  05DC  3000               	movlw	0
  3532  05DD  00F9               	movwf	?___ftdiv+1
  3533  05DE  3000               	movlw	0
  3534  05DF  00FA               	movwf	?___ftdiv+2
  3535  05E0  0008               	return
  3536  05E1                     i1l2762:	
  3537  05E1  3000               	movlw	0
  3538  05E2  00A5               	movwf	___ftdiv@f3
  3539  05E3  3000               	movlw	0
  3540  05E4  00A6               	movwf	___ftdiv@f3+1
  3541  05E5  3000               	movlw	0
  3542  05E6  00A7               	movwf	___ftdiv@f3+2
  3543  05E7  3089               	movlw	137
  3544  05E8  0729               	addwf	___ftdiv@sign,w
  3545  05E9  00A0               	movwf	??___ftdiv
  3546  05EA  0820               	movf	??___ftdiv,w
  3547  05EB  02A8               	subwf	___ftdiv@exp,f
  3548  05EC  087B               	movf	___ftdiv@f1,w
  3549  05ED  00A0               	movwf	??___ftdiv
  3550  05EE  087C               	movf	___ftdiv@f1+1,w
  3551  05EF  00A1               	movwf	??___ftdiv+1
  3552  05F0  087D               	movf	___ftdiv@f1+2,w
  3553  05F1  00A2               	movwf	??___ftdiv+2
  3554  05F2  3010               	movlw	16
  3555  05F3                     u230_25:	
  3556  05F3  1003               	clrc
  3557  05F4  0CA2               	rrf	??___ftdiv+2,f
  3558  05F5  0CA1               	rrf	??___ftdiv+1,f
  3559  05F6  0CA0               	rrf	??___ftdiv,f
  3560  05F7  3EFF               	addlw	-1
  3561  05F8  1D03               	skipz
  3562  05F9  2DF3               	goto	u230_25
  3563  05FA  0820               	movf	??___ftdiv,w
  3564  05FB  00A3               	movwf	??___ftdiv+3
  3565  05FC  0823               	movf	??___ftdiv+3,w
  3566  05FD  00A9               	movwf	___ftdiv@sign
  3567  05FE  0878               	movf	___ftdiv@f2,w
  3568  05FF  00A0               	movwf	??___ftdiv
  3569  0600  0879               	movf	___ftdiv@f2+1,w
  3570  0601  00A1               	movwf	??___ftdiv+1
  3571  0602  087A               	movf	___ftdiv@f2+2,w
  3572  0603  00A2               	movwf	??___ftdiv+2
  3573  0604  3010               	movlw	16
  3574  0605                     u231_25:	
  3575  0605  1003               	clrc
  3576  0606  0CA2               	rrf	??___ftdiv+2,f
  3577  0607  0CA1               	rrf	??___ftdiv+1,f
  3578  0608  0CA0               	rrf	??___ftdiv,f
  3579  0609  3EFF               	addlw	-1
  3580  060A  1D03               	skipz
  3581  060B  2E05               	goto	u231_25
  3582  060C  0820               	movf	??___ftdiv,w
  3583  060D  00A3               	movwf	??___ftdiv+3
  3584  060E  0823               	movf	??___ftdiv+3,w
  3585  060F  06A9               	xorwf	___ftdiv@sign,f
  3586  0610  3080               	movlw	128
  3587  0611  00A0               	movwf	??___ftdiv
  3588  0612  0820               	movf	??___ftdiv,w
  3589  0613  05A9               	andwf	___ftdiv@sign,f
  3590  0614  17FC               	bsf	___ftdiv@f1+1,7
  3591  0615  30FF               	movlw	255
  3592  0616  05FB               	andwf	___ftdiv@f1,f
  3593  0617  30FF               	movlw	255
  3594  0618  05FC               	andwf	___ftdiv@f1+1,f
  3595  0619  3000               	movlw	0
  3596  061A  05FD               	andwf	___ftdiv@f1+2,f
  3597  061B  17F9               	bsf	___ftdiv@f2+1,7
  3598  061C  30FF               	movlw	255
  3599  061D  05F8               	andwf	___ftdiv@f2,f
  3600  061E  30FF               	movlw	255
  3601  061F  05F9               	andwf	___ftdiv@f2+1,f
  3602  0620  3000               	movlw	0
  3603  0621  05FA               	andwf	___ftdiv@f2+2,f
  3604  0622  3018               	movlw	24
  3605  0623  00A0               	movwf	??___ftdiv
  3606  0624  0820               	movf	??___ftdiv,w
  3607  0625  00A4               	movwf	___ftdiv@cntr
  3608  0626                     i1l2776:	
  3609  0626  3001               	movlw	1
  3610  0627                     u232_25:	
  3611  0627  1003               	clrc
  3612  0628  0DA5               	rlf	___ftdiv@f3,f
  3613  0629  0DA6               	rlf	___ftdiv@f3+1,f
  3614  062A  0DA7               	rlf	___ftdiv@f3+2,f
  3615  062B  3EFF               	addlw	-1
  3616  062C  1D03               	skipz
  3617  062D  2E27               	goto	u232_25
  3618  062E  087A               	movf	___ftdiv@f2+2,w
  3619  062F  027D               	subwf	___ftdiv@f1+2,w
  3620  0630  1D03               	skipz
  3621  0631  2E38               	goto	u233_25
  3622  0632  0879               	movf	___ftdiv@f2+1,w
  3623  0633  027C               	subwf	___ftdiv@f1+1,w
  3624  0634  1D03               	skipz
  3625  0635  2E38               	goto	u233_25
  3626  0636  0878               	movf	___ftdiv@f2,w
  3627  0637  027B               	subwf	___ftdiv@f1,w
  3628  0638                     u233_25:	
  3629  0638  1C03               	skipc
  3630  0639  2E45               	goto	i1l2784
  3631  063A  0878               	movf	___ftdiv@f2,w
  3632  063B  02FB               	subwf	___ftdiv@f1,f
  3633  063C  0879               	movf	___ftdiv@f2+1,w
  3634  063D  1C03               	skipc
  3635  063E  0F79               	incfsz	___ftdiv@f2+1,w
  3636  063F  02FC               	subwf	___ftdiv@f1+1,f
  3637  0640  087A               	movf	___ftdiv@f2+2,w
  3638  0641  1C03               	skipc
  3639  0642  0A7A               	incf	___ftdiv@f2+2,w
  3640  0643  02FD               	subwf	___ftdiv@f1+2,f
  3641  0644  1425               	bsf	___ftdiv@f3,0
  3642  0645                     i1l2784:	
  3643  0645  3001               	movlw	1
  3644  0646                     u234_25:	
  3645  0646  1003               	clrc
  3646  0647  0DFB               	rlf	___ftdiv@f1,f
  3647  0648  0DFC               	rlf	___ftdiv@f1+1,f
  3648  0649  0DFD               	rlf	___ftdiv@f1+2,f
  3649  064A  3EFF               	addlw	-1
  3650  064B  1D03               	skipz
  3651  064C  2E46               	goto	u234_25
  3652  064D  3001               	movlw	1
  3653  064E  02A4               	subwf	___ftdiv@cntr,f
  3654  064F  1D03               	btfss	3,2
  3655  0650  2E26               	goto	i1l2776
  3656  0651  0825               	movf	___ftdiv@f3,w
  3657  0652  00F0               	movwf	?___ftpack
  3658  0653  0826               	movf	___ftdiv@f3+1,w
  3659  0654  00F1               	movwf	?___ftpack+1
  3660  0655  0827               	movf	___ftdiv@f3+2,w
  3661  0656  00F2               	movwf	?___ftpack+2
  3662  0657  0828               	movf	___ftdiv@exp,w
  3663  0658  00A0               	movwf	??___ftdiv
  3664  0659  0820               	movf	??___ftdiv,w
  3665  065A  00F3               	movwf	?___ftpack+3
  3666  065B  0829               	movf	___ftdiv@sign,w
  3667  065C  00A1               	movwf	??___ftdiv+1
  3668  065D  0821               	movf	??___ftdiv+1,w
  3669  065E  00F4               	movwf	?___ftpack+4
  3670  065F  120A  158A  272C   	fcall	___ftpack
  3671  0662  0870               	movf	?___ftpack,w
  3672  0663  00F8               	movwf	?___ftdiv
  3673  0664  0871               	movf	?___ftpack+1,w
  3674  0665  00F9               	movwf	?___ftdiv+1
  3675  0666  0872               	movf	?___ftpack+2,w
  3676  0667  00FA               	movwf	?___ftdiv+2
  3677  0668  0008               	return
  3678  0669                     __end_of___ftdiv:	
  3679                           
  3680                           	psect	text21
  3681  0B2F                     __ptext21:	
  3682 ;; *************** function ___awtoft *****************
  3683 ;; Defined at:
  3684 ;;		line 33 in file "C:\Program Files (x86)\Microchip\xc8\v1.21\sources\pic\awtoft.c"
  3685 ;; Parameters:    Size  Location     Type
  3686 ;;  c               2    8[COMMON] int 
  3687 ;; Auto vars:     Size  Location     Type
  3688 ;;  sign            1   13[COMMON] unsigned char 
  3689 ;; Return value:  Size  Location     Type
  3690 ;;                  3    8[COMMON] float 
  3691 ;; Registers used:
  3692 ;;		wreg, status,2, status,0, pclath, cstack
  3693 ;; Tracked objects:
  3694 ;;		On entry : 0/0
  3695 ;;		On exit  : 0/0
  3696 ;;		Unchanged: 0/0
  3697 ;; Data sizes:     COMMON   BANK0   BANK1   BANK3   BANK2
  3698 ;;      Params:         3       0       0       0       0
  3699 ;;      Locals:         1       0       0       0       0
  3700 ;;      Temps:          2       0       0       0       0
  3701 ;;      Totals:         6       0       0       0       0
  3702 ;;Total ram usage:        6 bytes
  3703 ;; Hardware stack levels used:    1
  3704 ;; Hardware stack levels required when called:    1
  3705 ;; This function calls:
  3706 ;;		___ftpack
  3707 ;; This function is called by:
  3708 ;;		_ReadVoltage
  3709 ;; This function uses a non-reentrant model
  3710 ;;
  3711                           
  3712                           
  3713                           ;psect for function ___awtoft
  3714  0B2F                     ___awtoft:	
  3715                           
  3716                           ;incstack = 0
  3717                           ; Regs used in ___awtoft: [wreg+status,2+status,0+pclath+cstack]
  3718  0B2F  01FD               	clrf	___awtoft@sign
  3719  0B30  1FF9               	btfss	___awtoft@c+1,7
  3720  0B31  2B39               	goto	i1l2926
  3721  0B32  09F8               	comf	___awtoft@c,f
  3722  0B33  09F9               	comf	___awtoft@c+1,f
  3723  0B34  0AF8               	incf	___awtoft@c,f
  3724  0B35  1903               	skipnz
  3725  0B36  0AF9               	incf	___awtoft@c+1,f
  3726  0B37  01FD               	clrf	___awtoft@sign
  3727  0B38  0AFD               	incf	___awtoft@sign,f
  3728  0B39                     i1l2926:	
  3729  0B39  0878               	movf	___awtoft@c,w
  3730  0B3A  00F0               	movwf	?___ftpack
  3731  0B3B  0879               	movf	___awtoft@c+1,w
  3732  0B3C  00F1               	movwf	?___ftpack+1
  3733  0B3D  01F2               	clrf	?___ftpack+2
  3734  0B3E  308E               	movlw	142
  3735  0B3F  00FB               	movwf	??___awtoft
  3736  0B40  087B               	movf	??___awtoft,w
  3737  0B41  00F3               	movwf	?___ftpack+3
  3738  0B42  087D               	movf	___awtoft@sign,w
  3739  0B43  00FC               	movwf	??___awtoft+1
  3740  0B44  087C               	movf	??___awtoft+1,w
  3741  0B45  00F4               	movwf	?___ftpack+4
  3742  0B46  120A  158A  272C   	fcall	___ftpack
  3743  0B49  0870               	movf	?___ftpack,w
  3744  0B4A  00F8               	movwf	?___awtoft
  3745  0B4B  0871               	movf	?___ftpack+1,w
  3746  0B4C  00F9               	movwf	?___awtoft+1
  3747  0B4D  0872               	movf	?___ftpack+2,w
  3748  0B4E  00FA               	movwf	?___awtoft+2
  3749  0B4F  0008               	return
  3750  0B50                     __end_of___awtoft:	
  3751                           
  3752                           	psect	text22
  3753  0C2D                     __ptext22:	
  3754 ;; *************** function _ReadADC *****************
  3755 ;; Defined at:
  3756 ;;		line 26 in file "adc.c"
  3757 ;; Parameters:    Size  Location     Type
  3758 ;;  ch              2    0[COMMON] int 
  3759 ;; Auto vars:     Size  Location     Type
  3760 ;;		None
  3761 ;; Return value:  Size  Location     Type
  3762 ;;                  2    0[COMMON] int 
  3763 ;; Registers used:
  3764 ;;		wreg, status,2, status,0, btemp+1
  3765 ;; Tracked objects:
  3766 ;;		On entry : 0/0
  3767 ;;		On exit  : 0/0
  3768 ;;		Unchanged: 0/0
  3769 ;; Data sizes:     COMMON   BANK0   BANK1   BANK3   BANK2
  3770 ;;      Params:         2       0       0       0       0
  3771 ;;      Locals:         0       0       0       0       0
  3772 ;;      Temps:          1       0       0       0       0
  3773 ;;      Totals:         3       0       0       0       0
  3774 ;;Total ram usage:        3 bytes
  3775 ;; Hardware stack levels used:    1
  3776 ;; This function calls:
  3777 ;;		Nothing
  3778 ;; This function is called by:
  3779 ;;		_ReadVoltage
  3780 ;; This function uses a non-reentrant model
  3781 ;;
  3782                           
  3783                           
  3784                           ;psect for function _ReadADC
  3785  0C2D                     _ReadADC:	
  3786                           
  3787                           ;adc.c: 27: if(ch>7) return 0;
  3788                           
  3789                           ;incstack = 0
  3790                           ; Regs used in _ReadADC: [wreg+status,2+status,0+btemp+1]
  3791  0C2D  0871               	movf	ReadADC@ch+1,w
  3792  0C2E  3A80               	xorlw	128
  3793  0C2F  00FF               	movwf	127
  3794  0C30  3080               	movlw	128
  3795  0C31  027F               	subwf	127,w
  3796  0C32  1D03               	skipz
  3797  0C33  2C36               	goto	u202_25
  3798  0C34  3008               	movlw	8
  3799  0C35  0270               	subwf	ReadADC@ch,w
  3800  0C36                     u202_25:	
  3801  0C36  1C03               	skipc
  3802  0C37  2C3B               	goto	i1l2668
  3803  0C38  01F0               	clrf	?_ReadADC
  3804  0C39  01F1               	clrf	?_ReadADC+1
  3805  0C3A  0008               	return
  3806  0C3B                     i1l2668:	
  3807                           
  3808                           ;adc.c: 29: ADCON0bits.CHS=ch;
  3809  0C3B  0870               	movf	ReadADC@ch,w
  3810  0C3C  00F2               	movwf	??_ReadADC
  3811  0C3D  0DF2               	rlf	??_ReadADC,f
  3812  0C3E  0DF2               	rlf	??_ReadADC,f
  3813  0C3F  0DF2               	rlf	??_ReadADC,f
  3814  0C40  1283               	bcf	3,5	;RP0=0, select bank0
  3815  0C41  1303               	bcf	3,6	;RP1=0, select bank0
  3816  0C42  081F               	movf	31,w	;volatile
  3817  0C43  0672               	xorwf	??_ReadADC,w
  3818  0C44  39C7               	andlw	-57
  3819  0C45  0672               	xorwf	??_ReadADC,w
  3820  0C46  009F               	movwf	31	;volatile
  3821                           
  3822                           ;adc.c: 32: _delay(100);
  3823  0C47  3021               	movlw	33
  3824  0C48  00F2               	movwf	??_ReadADC
  3825  0C49                     u283_27:	
  3826  0C49  0BF2               	decfsz	??_ReadADC,f
  3827  0C4A  2C49               	goto	u283_27
  3828                           
  3829                           ;adc.c: 35: ADCON0bits.GO=1;
  3830  0C4B  1283               	bcf	3,5	;RP0=0, select bank0
  3831  0C4C  1303               	bcf	3,6	;RP1=0, select bank0
  3832  0C4D  151F               	bsf	31,2	;volatile
  3833  0C4E                     i1l158:	
  3834                           ;adc.c: 38: while(ADCON0bits.GO);
  3835                           
  3836  0C4E  191F               	btfsc	31,2	;volatile
  3837  0C4F  2C4E               	goto	i1l158
  3838                           
  3839                           ;adc.c: 40: return ((ADRESH<<8)|ADRESL);
  3840  0C50  081E               	movf	30,w	;volatile
  3841  0C51  01F1               	clrf	?_ReadADC+1
  3842  0C52  07F1               	addwf	?_ReadADC+1,f
  3843  0C53  1683               	bsf	3,5	;RP0=1, select bank1
  3844  0C54  1303               	bcf	3,6	;RP1=0, select bank1
  3845  0C55  081E               	movf	30,w	;volatile
  3846  0C56  01F0               	clrf	?_ReadADC
  3847  0C57  07F0               	addwf	?_ReadADC,f
  3848  0C58  0008               	return
  3849  0C59                     __end_of_ReadADC:	
  3850                           
  3851                           	psect	text23
  3852  0AB6                     __ptext23:	
  3853 ;; *************** function _set_cur *****************
  3854 ;; Defined at:
  3855 ;;		line 70 in file "lcd.c"
  3856 ;; Parameters:    Size  Location     Type
  3857 ;;  offset          1    wreg     unsigned char 
  3858 ;; Auto vars:     Size  Location     Type
  3859 ;;  offset          1    2[COMMON] unsigned char 
  3860 ;; Return value:  Size  Location     Type
  3861 ;;		None               void
  3862 ;; Registers used:
  3863 ;;		wreg, status,2, status,0, pclath, cstack
  3864 ;; Tracked objects:
  3865 ;;		On entry : 0/0
  3866 ;;		On exit  : 0/0
  3867 ;;		Unchanged: 0/0
  3868 ;; Data sizes:     COMMON   BANK0   BANK1   BANK3   BANK2
  3869 ;;      Params:         0       0       0       0       0
  3870 ;;      Locals:         1       0       0       0       0
  3871 ;;      Temps:          0       0       0       0       0
  3872 ;;      Totals:         1       0       0       0       0
  3873 ;;Total ram usage:        1 bytes
  3874 ;; Hardware stack levels used:    1
  3875 ;; Hardware stack levels required when called:    1
  3876 ;; This function calls:
  3877 ;;		i1_toggle
  3878 ;; This function is called by:
  3879 ;;		_ISR
  3880 ;; This function uses a non-reentrant model
  3881 ;;
  3882                           
  3883                           
  3884                           ;psect for function _set_cur
  3885  0AB6                     _set_cur:	
  3886                           
  3887                           ;incstack = 0
  3888                           ; Regs used in _set_cur: [wreg+status,2+status,0+pclath+cstack]
  3889                           ;set_cur@offset stored from wreg
  3890  0AB6  00F2               	movwf	set_cur@offset
  3891                           
  3892                           ;lcd.c: 71: RB6 = 0;
  3893  0AB7  1283               	bcf	3,5	;RP0=0, select bank0
  3894  0AB8  1303               	bcf	3,6	;RP1=0, select bank0
  3895  0AB9  1306               	bcf	6,6	;volatile
  3896                           
  3897                           ;lcd.c: 72: PORTC = offset;
  3898  0ABA  0872               	movf	set_cur@offset,w
  3899  0ABB  0087               	movwf	7	;volatile
  3900                           
  3901                           ;lcd.c: 73: toggle();
  3902  0ABC  120A  158A  22D4   	fcall	i1_toggle
  3903  0ABF  0008               	return
  3904  0AC0                     __end_of_set_cur:	
  3905                           
  3906                           	psect	text24
  3907  0AD4                     __ptext24:	
  3908 ;; *************** function i1_toggle *****************
  3909 ;; Defined at:
  3910 ;;		line 8 in file "lcd.c"
  3911 ;; Parameters:    Size  Location     Type
  3912 ;;		None
  3913 ;; Auto vars:     Size  Location     Type
  3914 ;;		None
  3915 ;; Return value:  Size  Location     Type
  3916 ;;		None               void
  3917 ;; Registers used:
  3918 ;;		wreg
  3919 ;; Tracked objects:
  3920 ;;		On entry : 0/0
  3921 ;;		On exit  : 0/0
  3922 ;;		Unchanged: 0/0
  3923 ;; Data sizes:     COMMON   BANK0   BANK1   BANK3   BANK2
  3924 ;;      Params:         0       0       0       0       0
  3925 ;;      Locals:         0       0       0       0       0
  3926 ;;      Temps:          2       0       0       0       0
  3927 ;;      Totals:         2       0       0       0       0
  3928 ;;Total ram usage:        2 bytes
  3929 ;; Hardware stack levels used:    1
  3930 ;; This function calls:
  3931 ;;		Nothing
  3932 ;; This function is called by:
  3933 ;;		_write_char
  3934 ;;		_set_cur
  3935 ;;		_set_underline
  3936 ;;		i1_set_cur_l_1
  3937 ;; This function uses a non-reentrant model
  3938 ;;
  3939                           
  3940                           
  3941                           ;psect for function i1_toggle
  3942  0AD4                     i1_toggle:	
  3943                           
  3944                           ;lcd.c: 9: RB7 = 1;
  3945                           
  3946                           ;incstack = 0
  3947                           ; Regs used in i1_toggle: [wreg]
  3948  0AD4  1283               	bcf	3,5	;RP0=0, select bank0
  3949  0AD5  1303               	bcf	3,6	;RP1=0, select bank0
  3950  0AD6  1786               	bsf	6,7	;volatile
  3951                           
  3952                           ;lcd.c: 10: _delay(2000);
  3953  0AD7  3003               	movlw	3
  3954  0AD8  00F1               	movwf	??i1_toggle+1
  3955  0AD9  3097               	movlw	151
  3956  0ADA  00F0               	movwf	??i1_toggle
  3957  0ADB                     u284_27:	
  3958  0ADB  0BF0               	decfsz	??i1_toggle,f
  3959  0ADC  2ADB               	goto	u284_27
  3960  0ADD  0BF1               	decfsz	??i1_toggle+1,f
  3961  0ADE  2ADB               	goto	u284_27
  3962  0ADF  2AE0               	nop2
  3963                           
  3964                           ;lcd.c: 11: RB7 = 0;
  3965  0AE0  1283               	bcf	3,5	;RP0=0, select bank0
  3966  0AE1  1303               	bcf	3,6	;RP1=0, select bank0
  3967  0AE2  1386               	bcf	6,7	;volatile
  3968  0AE3  0008               	return
  3969  0AE4                     __end_ofi1_toggle:	
  3970                           
  3971                           	psect	text25
  3972  0F94                     __ptext25:	
  3973 ;; *************** function _freq_to_string *****************
  3974 ;; Defined at:
  3975 ;;		line 108 in file "main.c"
  3976 ;; Parameters:    Size  Location     Type
  3977 ;;  buf             1    wreg     PTR unsigned char 
  3978 ;;		 -> ISR@buffer(10), 
  3979 ;;  val             4    0[BANK0 ] unsigned long 
  3980 ;; Auto vars:     Size  Location     Type
  3981 ;;  buf             1    6[BANK0 ] PTR unsigned char 
  3982 ;;		 -> ISR@buffer(10), 
  3983 ;;  i               2    7[BANK0 ] int 
  3984 ;; Return value:  Size  Location     Type
  3985 ;;		None               void
  3986 ;; Registers used:
  3987 ;;		wreg, fsr0l, fsr0h, status,2, status,0, pclath, cstack
  3988 ;; Tracked objects:
  3989 ;;		On entry : 0/0
  3990 ;;		On exit  : 0/0
  3991 ;;		Unchanged: 0/0
  3992 ;; Data sizes:     COMMON   BANK0   BANK1   BANK3   BANK2
  3993 ;;      Params:         0       4       0       0       0
  3994 ;;      Locals:         0       3       0       0       0
  3995 ;;      Temps:          0       2       0       0       0
  3996 ;;      Totals:         0       9       0       0       0
  3997 ;;Total ram usage:        9 bytes
  3998 ;; Hardware stack levels used:    1
  3999 ;; Hardware stack levels required when called:    1
  4000 ;; This function calls:
  4001 ;;		___lldiv
  4002 ;;		___llmod
  4003 ;; This function is called by:
  4004 ;;		_ISR
  4005 ;; This function uses a non-reentrant model
  4006 ;;
  4007                           
  4008                           
  4009                           ;psect for function _freq_to_string
  4010  0F94                     _freq_to_string:	
  4011                           
  4012                           ;incstack = 0
  4013                           ; Regs used in _freq_to_string: [wreg-fsr0h+status,2+status,0+pclath+cstack]
  4014                           ;freq_to_string@buf stored from wreg
  4015  0F94  1283               	bcf	3,5	;RP0=0, select bank0
  4016  0F95  1303               	bcf	3,6	;RP1=0, select bank0
  4017  0F96  00A6               	movwf	freq_to_string@buf
  4018                           
  4019                           ;main.c: 109: int i = 9;
  4020  0F97  3009               	movlw	9
  4021  0F98  00A7               	movwf	freq_to_string@i
  4022  0F99  3000               	movlw	0
  4023  0F9A  00A8               	movwf	freq_to_string@i+1
  4024  0F9B                     i1l2660:	
  4025                           ;main.c: 110: const char digit[10] = "0123456789";
  4026                           ;main.c: 111: while(i >= 0)
  4027                           
  4028  0F9B  1BA8               	btfsc	freq_to_string@i+1,7
  4029  0F9C  0008               	return
  4030                           
  4031                           ;main.c: 112: {
  4032                           ;main.c: 113: if(i == 2 || i == 6)
  4033  0F9D  3002               	movlw	2
  4034  0F9E  0627               	xorwf	freq_to_string@i,w
  4035  0F9F  0428               	iorwf	freq_to_string@i+1,w
  4036  0FA0  1903               	skipnz
  4037  0FA1  2FA7               	goto	i1l2652
  4038  0FA2  3006               	movlw	6
  4039  0FA3  0627               	xorwf	freq_to_string@i,w
  4040  0FA4  0428               	iorwf	freq_to_string@i+1,w
  4041  0FA5  1D03               	skipz
  4042  0FA6  2FB2               	goto	i1l2654
  4043  0FA7                     i1l2652:	
  4044                           
  4045                           ;main.c: 114: {
  4046                           ;main.c: 115: buf[i] = '.';
  4047  0FA7  302E               	movlw	46
  4048  0FA8  00A4               	movwf	??_freq_to_string
  4049  0FA9  0827               	movf	freq_to_string@i,w
  4050  0FAA  0726               	addwf	freq_to_string@buf,w
  4051  0FAB  00A5               	movwf	??_freq_to_string+1
  4052  0FAC  0825               	movf	??_freq_to_string+1,w
  4053  0FAD  0084               	movwf	4
  4054  0FAE  0824               	movf	??_freq_to_string,w
  4055  0FAF  1383               	bcf	3,7	;select IRP bank0
  4056  0FB0  0080               	movwf	0
  4057                           
  4058                           ;main.c: 117: }else{
  4059  0FB1  2FF9               	goto	i1l2658
  4060  0FB2                     i1l2654:	
  4061                           
  4062                           ;main.c: 118: buf[i] = digit[val%10];
  4063  0FB2  3000               	movlw	0
  4064  0FB3  00F3               	movwf	?___llmod+3
  4065  0FB4  3000               	movlw	0
  4066  0FB5  00F2               	movwf	?___llmod+2
  4067  0FB6  3000               	movlw	0
  4068  0FB7  00F1               	movwf	?___llmod+1
  4069  0FB8  300A               	movlw	10
  4070  0FB9  00F0               	movwf	?___llmod
  4071  0FBA  0823               	movf	freq_to_string@val+3,w
  4072  0FBB  00F7               	movwf	?___llmod+7
  4073  0FBC  0822               	movf	freq_to_string@val+2,w
  4074  0FBD  00F6               	movwf	?___llmod+6
  4075  0FBE  0821               	movf	freq_to_string@val+1,w
  4076  0FBF  00F5               	movwf	?___llmod+5
  4077  0FC0  0820               	movf	freq_to_string@val,w
  4078  0FC1  00F4               	movwf	?___llmod+4
  4079  0FC2  120A  158A  2579   	fcall	___llmod
      +       120A  158A         
  4080  0FC7  0870               	movf	?___llmod,w
  4081  0FC8  3E01               	addlw	low (freq_to_string@digit-__stringbase)
  4082  0FC9  0084               	movwf	4
  4083  0FCA  120A  158A  200A   	fcall	stringdir
      +       120A  158A         
  4084  0FCF  1283               	bcf	3,5	;RP0=0, select bank0
  4085  0FD0  1303               	bcf	3,6	;RP1=0, select bank0
  4086  0FD1  00A4               	movwf	??_freq_to_string
  4087  0FD2  0827               	movf	freq_to_string@i,w
  4088  0FD3  0726               	addwf	freq_to_string@buf,w
  4089  0FD4  00A5               	movwf	??_freq_to_string+1
  4090  0FD5  0825               	movf	??_freq_to_string+1,w
  4091  0FD6  0084               	movwf	4
  4092  0FD7  0824               	movf	??_freq_to_string,w
  4093  0FD8  1383               	bcf	3,7	;select IRP bank0
  4094  0FD9  0080               	movwf	0
  4095                           
  4096                           ;main.c: 119: val /= 10;
  4097  0FDA  3000               	movlw	0
  4098  0FDB  00F3               	movwf	?___lldiv+3
  4099  0FDC  3000               	movlw	0
  4100  0FDD  00F2               	movwf	?___lldiv+2
  4101  0FDE  3000               	movlw	0
  4102  0FDF  00F1               	movwf	?___lldiv+1
  4103  0FE0  300A               	movlw	10
  4104  0FE1  00F0               	movwf	?___lldiv
  4105  0FE2  0823               	movf	freq_to_string@val+3,w
  4106  0FE3  00F7               	movwf	?___lldiv+7
  4107  0FE4  0822               	movf	freq_to_string@val+2,w
  4108  0FE5  00F6               	movwf	?___lldiv+6
  4109  0FE6  0821               	movf	freq_to_string@val+1,w
  4110  0FE7  00F5               	movwf	?___lldiv+5
  4111  0FE8  0820               	movf	freq_to_string@val,w
  4112  0FE9  00F4               	movwf	?___lldiv+4
  4113  0FEA  120A  158A  26CE   	fcall	___lldiv
      +       120A  158A         
  4114  0FEF  0873               	movf	?___lldiv+3,w
  4115  0FF0  1283               	bcf	3,5	;RP0=0, select bank0
  4116  0FF1  1303               	bcf	3,6	;RP1=0, select bank0
  4117  0FF2  00A3               	movwf	freq_to_string@val+3
  4118  0FF3  0872               	movf	?___lldiv+2,w
  4119  0FF4  00A2               	movwf	freq_to_string@val+2
  4120  0FF5  0871               	movf	?___lldiv+1,w
  4121  0FF6  00A1               	movwf	freq_to_string@val+1
  4122  0FF7  0870               	movf	?___lldiv,w
  4123  0FF8  00A0               	movwf	freq_to_string@val
  4124  0FF9                     i1l2658:	
  4125                           
  4126                           ;main.c: 120: }
  4127                           ;main.c: 121: i--;
  4128  0FF9  30FF               	movlw	255
  4129  0FFA  07A7               	addwf	freq_to_string@i,f
  4130  0FFB  1803               	skipnc
  4131  0FFC  0AA8               	incf	freq_to_string@i+1,f
  4132  0FFD  30FF               	movlw	255
  4133  0FFE  07A8               	addwf	freq_to_string@i+1,f
  4134  0FFF  2F9B               	goto	i1l2660
  4135  1000                     __end_of_freq_to_string:	
  4136                           
  4137                           	psect	text26
  4138  0D79                     __ptext26:	
  4139 ;; *************** function ___llmod *****************
  4140 ;; Defined at:
  4141 ;;		line 5 in file "C:\Program Files (x86)\Microchip\xc8\v1.21\sources\pic\llmod.c"
  4142 ;; Parameters:    Size  Location     Type
  4143 ;;  divisor         4    0[COMMON] unsigned long 
  4144 ;;  dividend        4    4[COMMON] unsigned long 
  4145 ;; Auto vars:     Size  Location     Type
  4146 ;;  counter         1    9[COMMON] unsigned char 
  4147 ;; Return value:  Size  Location     Type
  4148 ;;                  4    0[COMMON] unsigned long 
  4149 ;; Registers used:
  4150 ;;		wreg, status,2, status,0
  4151 ;; Tracked objects:
  4152 ;;		On entry : 0/0
  4153 ;;		On exit  : 0/0
  4154 ;;		Unchanged: 0/0
  4155 ;; Data sizes:     COMMON   BANK0   BANK1   BANK3   BANK2
  4156 ;;      Params:         8       0       0       0       0
  4157 ;;      Locals:         1       0       0       0       0
  4158 ;;      Temps:          1       0       0       0       0
  4159 ;;      Totals:        10       0       0       0       0
  4160 ;;Total ram usage:       10 bytes
  4161 ;; Hardware stack levels used:    1
  4162 ;; This function calls:
  4163 ;;		Nothing
  4164 ;; This function is called by:
  4165 ;;		_freq_to_string
  4166 ;; This function uses a non-reentrant model
  4167 ;;
  4168                           
  4169                           
  4170                           ;psect for function ___llmod
  4171  0D79                     ___llmod:	
  4172                           
  4173                           ;incstack = 0
  4174                           ; Regs used in ___llmod: [wreg+status,2+status,0]
  4175  0D79  0873               	movf	___llmod@divisor+3,w
  4176  0D7A  0472               	iorwf	___llmod@divisor+2,w
  4177  0D7B  0471               	iorwf	___llmod@divisor+1,w
  4178  0D7C  0470               	iorwf	___llmod@divisor,w
  4179  0D7D  1903               	skipnz
  4180  0D7E  2DBC               	goto	i1l2552
  4181  0D7F  01F9               	clrf	___llmod@counter
  4182  0D80  0AF9               	incf	___llmod@counter,f
  4183  0D81                     i1l2542:	
  4184  0D81  1BF3               	btfsc	___llmod@divisor+3,7
  4185  0D82  2D91               	goto	i1l2544
  4186  0D83  3001               	movlw	1
  4187  0D84  00F8               	movwf	??___llmod
  4188  0D85                     u174_25:	
  4189  0D85  1003               	clrc
  4190  0D86  0DF0               	rlf	___llmod@divisor,f
  4191  0D87  0DF1               	rlf	___llmod@divisor+1,f
  4192  0D88  0DF2               	rlf	___llmod@divisor+2,f
  4193  0D89  0DF3               	rlf	___llmod@divisor+3,f
  4194  0D8A  0BF8               	decfsz	??___llmod,f
  4195  0D8B  2D85               	goto	u174_25
  4196  0D8C  3001               	movlw	1
  4197  0D8D  00F8               	movwf	??___llmod
  4198  0D8E  0878               	movf	??___llmod,w
  4199  0D8F  07F9               	addwf	___llmod@counter,f
  4200  0D90  2D81               	goto	i1l2542
  4201  0D91                     i1l2544:	
  4202  0D91  0873               	movf	___llmod@divisor+3,w
  4203  0D92  0277               	subwf	___llmod@dividend+3,w
  4204  0D93  1D03               	skipz
  4205  0D94  2D9F               	goto	u176_25
  4206  0D95  0872               	movf	___llmod@divisor+2,w
  4207  0D96  0276               	subwf	___llmod@dividend+2,w
  4208  0D97  1D03               	skipz
  4209  0D98  2D9F               	goto	u176_25
  4210  0D99  0871               	movf	___llmod@divisor+1,w
  4211  0D9A  0275               	subwf	___llmod@dividend+1,w
  4212  0D9B  1D03               	skipz
  4213  0D9C  2D9F               	goto	u176_25
  4214  0D9D  0870               	movf	___llmod@divisor,w
  4215  0D9E  0274               	subwf	___llmod@dividend,w
  4216  0D9F                     u176_25:	
  4217  0D9F  1C03               	skipc
  4218  0DA0  2DAF               	goto	i1l2548
  4219  0DA1  0870               	movf	___llmod@divisor,w
  4220  0DA2  02F4               	subwf	___llmod@dividend,f
  4221  0DA3  0871               	movf	___llmod@divisor+1,w
  4222  0DA4  1C03               	skipc
  4223  0DA5  0F71               	incfsz	___llmod@divisor+1,w
  4224  0DA6  02F5               	subwf	___llmod@dividend+1,f
  4225  0DA7  0872               	movf	___llmod@divisor+2,w
  4226  0DA8  1C03               	skipc
  4227  0DA9  0F72               	incfsz	___llmod@divisor+2,w
  4228  0DAA  02F6               	subwf	___llmod@dividend+2,f
  4229  0DAB  0873               	movf	___llmod@divisor+3,w
  4230  0DAC  1C03               	skipc
  4231  0DAD  0F73               	incfsz	___llmod@divisor+3,w
  4232  0DAE  02F7               	subwf	___llmod@dividend+3,f
  4233  0DAF                     i1l2548:	
  4234  0DAF  3001               	movlw	1
  4235  0DB0                     u177_25:	
  4236  0DB0  1003               	clrc
  4237  0DB1  0CF3               	rrf	___llmod@divisor+3,f
  4238  0DB2  0CF2               	rrf	___llmod@divisor+2,f
  4239  0DB3  0CF1               	rrf	___llmod@divisor+1,f
  4240  0DB4  0CF0               	rrf	___llmod@divisor,f
  4241  0DB5  3EFF               	addlw	-1
  4242  0DB6  1D03               	skipz
  4243  0DB7  2DB0               	goto	u177_25
  4244  0DB8  3001               	movlw	1
  4245  0DB9  02F9               	subwf	___llmod@counter,f
  4246  0DBA  1D03               	btfss	3,2
  4247  0DBB  2D91               	goto	i1l2544
  4248  0DBC                     i1l2552:	
  4249  0DBC  0877               	movf	___llmod@dividend+3,w
  4250  0DBD  00F3               	movwf	?___llmod+3
  4251  0DBE  0876               	movf	___llmod@dividend+2,w
  4252  0DBF  00F2               	movwf	?___llmod+2
  4253  0DC0  0875               	movf	___llmod@dividend+1,w
  4254  0DC1  00F1               	movwf	?___llmod+1
  4255  0DC2  0874               	movf	___llmod@dividend,w
  4256  0DC3  00F0               	movwf	?___llmod
  4257  0DC4  0008               	return
  4258  0DC5                     __end_of___llmod:	
  4259                           
  4260                           	psect	text27
  4261  0ECE                     __ptext27:	
  4262 ;; *************** function ___lldiv *****************
  4263 ;; Defined at:
  4264 ;;		line 5 in file "C:\Program Files (x86)\Microchip\xc8\v1.21\sources\pic\lldiv.c"
  4265 ;; Parameters:    Size  Location     Type
  4266 ;;  divisor         4    0[COMMON] unsigned long 
  4267 ;;  dividend        4    4[COMMON] unsigned long 
  4268 ;; Auto vars:     Size  Location     Type
  4269 ;;  quotient        4    9[COMMON] unsigned long 
  4270 ;;  counter         1   13[COMMON] unsigned char 
  4271 ;; Return value:  Size  Location     Type
  4272 ;;                  4    0[COMMON] unsigned long 
  4273 ;; Registers used:
  4274 ;;		wreg, status,2, status,0
  4275 ;; Tracked objects:
  4276 ;;		On entry : 0/0
  4277 ;;		On exit  : 0/0
  4278 ;;		Unchanged: 0/0
  4279 ;; Data sizes:     COMMON   BANK0   BANK1   BANK3   BANK2
  4280 ;;      Params:         8       0       0       0       0
  4281 ;;      Locals:         5       0       0       0       0
  4282 ;;      Temps:          1       0       0       0       0
  4283 ;;      Totals:        14       0       0       0       0
  4284 ;;Total ram usage:       14 bytes
  4285 ;; Hardware stack levels used:    1
  4286 ;; This function calls:
  4287 ;;		Nothing
  4288 ;; This function is called by:
  4289 ;;		_freq_to_string
  4290 ;; This function uses a non-reentrant model
  4291 ;;
  4292                           
  4293                           
  4294                           ;psect for function ___lldiv
  4295  0ECE                     ___lldiv:	
  4296                           
  4297                           ;incstack = 0
  4298                           ; Regs used in ___lldiv: [wreg+status,2+status,0]
  4299  0ECE  3000               	movlw	0
  4300  0ECF  00FC               	movwf	___lldiv@quotient+3
  4301  0ED0  3000               	movlw	0
  4302  0ED1  00FB               	movwf	___lldiv@quotient+2
  4303  0ED2  3000               	movlw	0
  4304  0ED3  00FA               	movwf	___lldiv@quotient+1
  4305  0ED4  3000               	movlw	0
  4306  0ED5  00F9               	movwf	___lldiv@quotient
  4307  0ED6  0873               	movf	___lldiv@divisor+3,w
  4308  0ED7  0472               	iorwf	___lldiv@divisor+2,w
  4309  0ED8  0471               	iorwf	___lldiv@divisor+1,w
  4310  0ED9  0470               	iorwf	___lldiv@divisor,w
  4311  0EDA  1903               	skipnz
  4312  0EDB  2F23               	goto	i1l2532
  4313  0EDC  01FD               	clrf	___lldiv@counter
  4314  0EDD  0AFD               	incf	___lldiv@counter,f
  4315  0EDE                     i1l2518:	
  4316  0EDE  1BF3               	btfsc	___lldiv@divisor+3,7
  4317  0EDF  2EEE               	goto	i1l2520
  4318  0EE0  3001               	movlw	1
  4319  0EE1  00F8               	movwf	??___lldiv
  4320  0EE2                     u167_25:	
  4321  0EE2  1003               	clrc
  4322  0EE3  0DF0               	rlf	___lldiv@divisor,f
  4323  0EE4  0DF1               	rlf	___lldiv@divisor+1,f
  4324  0EE5  0DF2               	rlf	___lldiv@divisor+2,f
  4325  0EE6  0DF3               	rlf	___lldiv@divisor+3,f
  4326  0EE7  0BF8               	decfsz	??___lldiv,f
  4327  0EE8  2EE2               	goto	u167_25
  4328  0EE9  3001               	movlw	1
  4329  0EEA  00F8               	movwf	??___lldiv
  4330  0EEB  0878               	movf	??___lldiv,w
  4331  0EEC  07FD               	addwf	___lldiv@counter,f
  4332  0EED  2EDE               	goto	i1l2518
  4333  0EEE                     i1l2520:	
  4334  0EEE  3001               	movlw	1
  4335  0EEF  00F8               	movwf	??___lldiv
  4336  0EF0                     u169_25:	
  4337  0EF0  1003               	clrc
  4338  0EF1  0DF9               	rlf	___lldiv@quotient,f
  4339  0EF2  0DFA               	rlf	___lldiv@quotient+1,f
  4340  0EF3  0DFB               	rlf	___lldiv@quotient+2,f
  4341  0EF4  0DFC               	rlf	___lldiv@quotient+3,f
  4342  0EF5  0BF8               	decfsz	??___lldiv,f
  4343  0EF6  2EF0               	goto	u169_25
  4344  0EF7  0873               	movf	___lldiv@divisor+3,w
  4345  0EF8  0277               	subwf	___lldiv@dividend+3,w
  4346  0EF9  1D03               	skipz
  4347  0EFA  2F05               	goto	u170_25
  4348  0EFB  0872               	movf	___lldiv@divisor+2,w
  4349  0EFC  0276               	subwf	___lldiv@dividend+2,w
  4350  0EFD  1D03               	skipz
  4351  0EFE  2F05               	goto	u170_25
  4352  0EFF  0871               	movf	___lldiv@divisor+1,w
  4353  0F00  0275               	subwf	___lldiv@dividend+1,w
  4354  0F01  1D03               	skipz
  4355  0F02  2F05               	goto	u170_25
  4356  0F03  0870               	movf	___lldiv@divisor,w
  4357  0F04  0274               	subwf	___lldiv@dividend,w
  4358  0F05                     u170_25:	
  4359  0F05  1C03               	skipc
  4360  0F06  2F16               	goto	i1l2528
  4361  0F07  0870               	movf	___lldiv@divisor,w
  4362  0F08  02F4               	subwf	___lldiv@dividend,f
  4363  0F09  0871               	movf	___lldiv@divisor+1,w
  4364  0F0A  1C03               	skipc
  4365  0F0B  0F71               	incfsz	___lldiv@divisor+1,w
  4366  0F0C  02F5               	subwf	___lldiv@dividend+1,f
  4367  0F0D  0872               	movf	___lldiv@divisor+2,w
  4368  0F0E  1C03               	skipc
  4369  0F0F  0F72               	incfsz	___lldiv@divisor+2,w
  4370  0F10  02F6               	subwf	___lldiv@dividend+2,f
  4371  0F11  0873               	movf	___lldiv@divisor+3,w
  4372  0F12  1C03               	skipc
  4373  0F13  0F73               	incfsz	___lldiv@divisor+3,w
  4374  0F14  02F7               	subwf	___lldiv@dividend+3,f
  4375  0F15  1479               	bsf	___lldiv@quotient,0
  4376  0F16                     i1l2528:	
  4377  0F16  3001               	movlw	1
  4378  0F17                     u171_25:	
  4379  0F17  1003               	clrc
  4380  0F18  0CF3               	rrf	___lldiv@divisor+3,f
  4381  0F19  0CF2               	rrf	___lldiv@divisor+2,f
  4382  0F1A  0CF1               	rrf	___lldiv@divisor+1,f
  4383  0F1B  0CF0               	rrf	___lldiv@divisor,f
  4384  0F1C  3EFF               	addlw	-1
  4385  0F1D  1D03               	skipz
  4386  0F1E  2F17               	goto	u171_25
  4387  0F1F  3001               	movlw	1
  4388  0F20  02FD               	subwf	___lldiv@counter,f
  4389  0F21  1D03               	btfss	3,2
  4390  0F22  2EEE               	goto	i1l2520
  4391  0F23                     i1l2532:	
  4392  0F23  087C               	movf	___lldiv@quotient+3,w
  4393  0F24  00F3               	movwf	?___lldiv+3
  4394  0F25  087B               	movf	___lldiv@quotient+2,w
  4395  0F26  00F2               	movwf	?___lldiv+2
  4396  0F27  087A               	movf	___lldiv@quotient+1,w
  4397  0F28  00F1               	movwf	?___lldiv+1
  4398  0F29  0879               	movf	___lldiv@quotient,w
  4399  0F2A  00F0               	movwf	?___lldiv
  4400  0F2B  0008               	return
  4401  0F2C                     __end_of___lldiv:	
  4402                           
  4403                           	psect	text28
  4404  01E0                     __ptext28:	
  4405 ;; *************** function _FloatToString *****************
  4406 ;; Defined at:
  4407 ;;		line 73 in file "main.c"
  4408 ;; Parameters:    Size  Location     Type
  4409 ;;  str             1    wreg     PTR unsigned char 
  4410 ;;		 -> ISR@buffer(10), 
  4411 ;;  f               3   23[BANK0 ] float 
  4412 ;;  size            1   26[BANK0 ] unsigned char 
  4413 ;; Auto vars:     Size  Location     Type
  4414 ;;  str             1   33[BANK0 ] PTR unsigned char 
  4415 ;;		 -> ISR@buffer(10), 
  4416 ;;  value           2   35[BANK0 ] unsigned int 
  4417 ;;  pos             1   34[BANK0 ] unsigned char 
  4418 ;;  len             1   32[BANK0 ] unsigned char 
  4419 ;;  curr            1   31[BANK0 ] unsigned char 
  4420 ;; Return value:  Size  Location     Type
  4421 ;;		None               void
  4422 ;; Registers used:
  4423 ;;		wreg, fsr0l, fsr0h, status,2, status,0, pclath, cstack
  4424 ;; Tracked objects:
  4425 ;;		On entry : 0/0
  4426 ;;		On exit  : 0/0
  4427 ;;		Unchanged: 0/0
  4428 ;; Data sizes:     COMMON   BANK0   BANK1   BANK3   BANK2
  4429 ;;      Params:         0       4       0       0       0
  4430 ;;      Locals:         0       6       0       0       0
  4431 ;;      Temps:          0       4       0       0       0
  4432 ;;      Totals:         0      14       0       0       0
  4433 ;;Total ram usage:       14 bytes
  4434 ;; Hardware stack levels used:    1
  4435 ;; Hardware stack levels required when called:    2
  4436 ;; This function calls:
  4437 ;;		_utoa
  4438 ;;		_strlen
  4439 ;;		___ftadd
  4440 ;;		___ftge
  4441 ;;		___ftmul
  4442 ;;		___ftneg
  4443 ;;		___fttol
  4444 ;;		___lwtoft
  4445 ;;		___wmul
  4446 ;; This function is called by:
  4447 ;;		_ISR
  4448 ;; This function uses a non-reentrant model
  4449 ;;
  4450                           
  4451                           
  4452                           ;psect for function _FloatToString
  4453  01E0                     _FloatToString:	
  4454                           
  4455                           ;incstack = 0
  4456                           ; Regs used in _FloatToString: [wreg-fsr0h+status,2+status,0+pclath+cstack]
  4457                           ;FloatToString@str stored from wreg
  4458  01E0  1283               	bcf	3,5	;RP0=0, select bank0
  4459  01E1  1303               	bcf	3,6	;RP1=0, select bank0
  4460  01E2  00C1               	movwf	FloatToString@str
  4461                           
  4462                           ;main.c: 74: char pos;
  4463                           ;main.c: 75: char len;
  4464                           ;main.c: 76: char curr;
  4465                           ;main.c: 77: unsigned int value;
  4466                           ;main.c: 78: pos = 0;
  4467  01E3  01C2               	clrf	FloatToString@pos
  4468                           
  4469                           ;main.c: 80: value = (int)f;
  4470  01E4  0837               	movf	FloatToString@f,w
  4471  01E5  00F0               	movwf	?___fttol
  4472  01E6  0838               	movf	FloatToString@f+1,w
  4473  01E7  00F1               	movwf	?___fttol+1
  4474  01E8  0839               	movf	FloatToString@f+2,w
  4475  01E9  00F2               	movwf	?___fttol+2
  4476  01EA  120A  118A  2669   	fcall	___fttol
      +       120A  118A         
  4477  01EF  0871               	movf	?___fttol+1,w
  4478  01F0  1283               	bcf	3,5	;RP0=0, select bank0
  4479  01F1  1303               	bcf	3,6	;RP1=0, select bank0
  4480  01F2  01C4               	clrf	FloatToString@value+1
  4481  01F3  07C4               	addwf	FloatToString@value+1,f
  4482  01F4  0870               	movf	?___fttol,w
  4483  01F5  01C3               	clrf	FloatToString@value
  4484  01F6  07C3               	addwf	FloatToString@value,f
  4485                           
  4486                           ;main.c: 81: utoa(str, value, 10);
  4487  01F7  0844               	movf	FloatToString@value+1,w
  4488  01F8  01F9               	clrf	?_utoa+1
  4489  01F9  07F9               	addwf	?_utoa+1,f
  4490  01FA  0843               	movf	FloatToString@value,w
  4491  01FB  01F8               	clrf	?_utoa
  4492  01FC  07F8               	addwf	?_utoa,f
  4493  01FD  300A               	movlw	10
  4494  01FE  00FA               	movwf	?_utoa+2
  4495  01FF  3000               	movlw	0
  4496  0200  00FB               	movwf	?_utoa+3
  4497  0201  0841               	movf	FloatToString@str,w
  4498  0202  120A  118A  26F5   	fcall	_utoa
      +       120A  118A         
  4499                           
  4500                           ;main.c: 84: if (f < 0 )
  4501  0207  1283               	bcf	3,5	;RP0=0, select bank0
  4502  0208  1303               	bcf	3,6	;RP1=0, select bank0
  4503  0209  0837               	movf	FloatToString@f,w
  4504  020A  00F0               	movwf	?___ftge
  4505  020B  0838               	movf	FloatToString@f+1,w
  4506  020C  00F1               	movwf	?___ftge+1
  4507  020D  0839               	movf	FloatToString@f+2,w
  4508  020E  00F2               	movwf	?___ftge+2
  4509  020F  3000               	movlw	0
  4510  0210  00F3               	movwf	?___ftge+3
  4511  0211  3000               	movlw	0
  4512  0212  00F4               	movwf	?___ftge+4
  4513  0213  3000               	movlw	0
  4514  0214  00F5               	movwf	?___ftge+5
  4515  0215  120A  158A  2671   	fcall	___ftge
      +       120A  118A         
  4516  021A  1803               	btfsc	3,0
  4517  021B  2A4E               	goto	i1l2950
  4518                           
  4519                           ;main.c: 85: {
  4520                           ;main.c: 86: f *= -1;
  4521  021C  3000               	movlw	0
  4522  021D  1283               	bcf	3,5	;RP0=0, select bank0
  4523  021E  1303               	bcf	3,6	;RP1=0, select bank0
  4524  021F  00A0               	movwf	?___ftmul
  4525  0220  3080               	movlw	128
  4526  0221  00A1               	movwf	?___ftmul+1
  4527  0222  30BF               	movlw	191
  4528  0223  00A2               	movwf	?___ftmul+2
  4529  0224  0837               	movf	FloatToString@f,w
  4530  0225  00A3               	movwf	?___ftmul+3
  4531  0226  0838               	movf	FloatToString@f+1,w
  4532  0227  00A4               	movwf	?___ftmul+4
  4533  0228  0839               	movf	FloatToString@f+2,w
  4534  0229  00A5               	movwf	?___ftmul+5
  4535  022A  120A  118A  24E0   	fcall	___ftmul
      +       120A  118A         
  4536  022F  1283               	bcf	3,5	;RP0=0, select bank0
  4537  0230  1303               	bcf	3,6	;RP1=0, select bank0
  4538  0231  0820               	movf	?___ftmul,w
  4539  0232  00B7               	movwf	FloatToString@f
  4540  0233  0821               	movf	?___ftmul+1,w
  4541  0234  00B8               	movwf	FloatToString@f+1
  4542  0235  0822               	movf	?___ftmul+2,w
  4543  0236  00B9               	movwf	FloatToString@f+2
  4544                           
  4545                           ;main.c: 87: value *= -1;
  4546  0237  30FF               	movlw	255
  4547  0238  00F0               	movwf	?___wmul
  4548  0239  30FF               	movlw	255
  4549  023A  00F1               	movwf	?___wmul+1
  4550  023B  0844               	movf	FloatToString@value+1,w
  4551  023C  01F3               	clrf	?___wmul+3
  4552  023D  07F3               	addwf	?___wmul+3,f
  4553  023E  0843               	movf	FloatToString@value,w
  4554  023F  01F2               	clrf	?___wmul+2
  4555  0240  07F2               	addwf	?___wmul+2,f
  4556  0241  120A  158A  2371   	fcall	___wmul
      +       120A  118A         
  4557  0246  0871               	movf	?___wmul+1,w
  4558  0247  1283               	bcf	3,5	;RP0=0, select bank0
  4559  0248  1303               	bcf	3,6	;RP1=0, select bank0
  4560  0249  01C4               	clrf	FloatToString@value+1
  4561  024A  07C4               	addwf	FloatToString@value+1,f
  4562  024B  0870               	movf	?___wmul,w
  4563  024C  01C3               	clrf	FloatToString@value
  4564  024D  07C3               	addwf	FloatToString@value,f
  4565  024E                     i1l2950:	
  4566                           
  4567                           ;main.c: 88: }
  4568                           ;main.c: 90: len = strlen(str);
  4569  024E  1283               	bcf	3,5	;RP0=0, select bank0
  4570  024F  1303               	bcf	3,6	;RP1=0, select bank0
  4571  0250  0841               	movf	FloatToString@str,w
  4572  0251  120A  158A  23DC   	fcall	_strlen
      +       120A  118A         
  4573  0256  0870               	movf	?_strlen,w
  4574  0257  1283               	bcf	3,5	;RP0=0, select bank0
  4575  0258  1303               	bcf	3,6	;RP1=0, select bank0
  4576  0259  00BB               	movwf	??_FloatToString
  4577  025A  083B               	movf	??_FloatToString,w
  4578  025B  00C0               	movwf	FloatToString@len
  4579                           
  4580                           ;main.c: 91: pos = len;
  4581  025C  0840               	movf	FloatToString@len,w
  4582  025D  00BB               	movwf	??_FloatToString
  4583  025E  083B               	movf	??_FloatToString,w
  4584  025F  00C2               	movwf	FloatToString@pos
  4585                           
  4586                           ;main.c: 92: str[pos++] = '.';
  4587  0260  302E               	movlw	46
  4588  0261                     L9:	
  4589  0261  00BB               	movwf	??_FloatToString
  4590  0262  0842               	movf	FloatToString@pos,w
  4591  0263  0741               	addwf	FloatToString@str,w
  4592  0264  00BC               	movwf	??_FloatToString+1
  4593  0265  083C               	movf	??_FloatToString+1,w
  4594  0266  0084               	movwf	4
  4595  0267  083B               	movf	??_FloatToString,w
  4596  0268  1383               	bcf	3,7	;select IRP bank0
  4597  0269  0080               	movwf	0
  4598  026A  3001               	movlw	1
  4599  026B  00BB               	movwf	??_FloatToString
  4600  026C  083B               	movf	??_FloatToString,w
  4601  026D  07C2               	addwf	FloatToString@pos,f
  4602  026E  083A               	movf	FloatToString@size,w
  4603  026F  0740               	addwf	FloatToString@len,w
  4604  0270  00BB               	movwf	??_FloatToString
  4605  0271  01BC               	clrf	??_FloatToString+1
  4606  0272  0DBC               	rlf	??_FloatToString+1,f
  4607  0273  083B               	movf	??_FloatToString,w
  4608  0274  3E01               	addlw	1
  4609  0275  00BD               	movwf	??_FloatToString+2
  4610  0276  083C               	movf	??_FloatToString+1,w
  4611  0277  1803               	skipnc
  4612  0278  3E01               	addlw	1
  4613  0279  3E00               	addlw	0
  4614  027A  00BE               	movwf	??_FloatToString+3
  4615  027B  083E               	movf	??_FloatToString+3,w
  4616  027C  3A80               	xorlw	128
  4617  027D  3C80               	sublw	128
  4618  027E  1D03               	skipz
  4619  027F  2A82               	goto	u260_25
  4620  0280  083D               	movf	??_FloatToString+2,w
  4621  0281  0242               	subwf	FloatToString@pos,w
  4622  0282                     u260_25:	
  4623  0282  1803               	btfsc	3,0
  4624  0283  0008               	return
  4625                           
  4626                           ;main.c: 95: {
  4627                           ;main.c: 96: f = f - (float)value;
  4628                           
  4629                           ;main.c: 94: while(pos < (size + len + 1) )
  4630  0284  1283               	bcf	3,5	;RP0=0, select bank0
  4631  0285  1303               	bcf	3,6	;RP1=0, select bank0
  4632  0286  0837               	movf	FloatToString@f,w
  4633  0287  00A1               	movwf	?___ftadd
  4634  0288  0838               	movf	FloatToString@f+1,w
  4635  0289  00A2               	movwf	?___ftadd+1
  4636  028A  0839               	movf	FloatToString@f+2,w
  4637  028B  00A3               	movwf	?___ftadd+2
  4638  028C  0844               	movf	FloatToString@value+1,w
  4639  028D  01FC               	clrf	?___lwtoft+1
  4640  028E  07FC               	addwf	?___lwtoft+1,f
  4641  028F  0843               	movf	FloatToString@value,w
  4642  0290  01FB               	clrf	?___lwtoft
  4643  0291  07FB               	addwf	?___lwtoft,f
  4644  0292  120A  158A  2319   	fcall	___lwtoft
      +       120A  118A         
  4645  0297  087B               	movf	?___lwtoft,w
  4646  0298  00F8               	movwf	?___ftneg
  4647  0299  087C               	movf	?___lwtoft+1,w
  4648  029A  00F9               	movwf	?___ftneg+1
  4649  029B  087D               	movf	?___lwtoft+2,w
  4650  029C  00FA               	movwf	?___ftneg+2
  4651  029D  120A  158A  2294   	fcall	___ftneg
      +       120A  118A         
  4652  02A2  0878               	movf	?___ftneg,w
  4653  02A3  1283               	bcf	3,5	;RP0=0, select bank0
  4654  02A4  1303               	bcf	3,6	;RP1=0, select bank0
  4655  02A5  00A4               	movwf	?___ftadd+3
  4656  02A6  0879               	movf	?___ftneg+1,w
  4657  02A7  00A5               	movwf	?___ftadd+4
  4658  02A8  087A               	movf	?___ftneg+2,w
  4659  02A9  00A6               	movwf	?___ftadd+5
  4660  02AA  120A  118A  22EA   	fcall	___ftadd
      +       120A  118A         
  4661  02AF  1283               	bcf	3,5	;RP0=0, select bank0
  4662  02B0  1303               	bcf	3,6	;RP1=0, select bank0
  4663  02B1  0821               	movf	?___ftadd,w
  4664  02B2  00B7               	movwf	FloatToString@f
  4665  02B3  0822               	movf	?___ftadd+1,w
  4666  02B4  00B8               	movwf	FloatToString@f+1
  4667  02B5  0823               	movf	?___ftadd+2,w
  4668  02B6  00B9               	movwf	FloatToString@f+2
  4669                           
  4670                           ;main.c: 97: f *= 10;
  4671  02B7  3000               	movlw	0
  4672  02B8  00A0               	movwf	?___ftmul
  4673  02B9  3020               	movlw	32
  4674  02BA  00A1               	movwf	?___ftmul+1
  4675  02BB  3041               	movlw	65
  4676  02BC  00A2               	movwf	?___ftmul+2
  4677  02BD  0837               	movf	FloatToString@f,w
  4678  02BE  00A3               	movwf	?___ftmul+3
  4679  02BF  0838               	movf	FloatToString@f+1,w
  4680  02C0  00A4               	movwf	?___ftmul+4
  4681  02C1  0839               	movf	FloatToString@f+2,w
  4682  02C2  00A5               	movwf	?___ftmul+5
  4683  02C3  120A  118A  24E0   	fcall	___ftmul
      +       120A  118A         
  4684  02C8  1283               	bcf	3,5	;RP0=0, select bank0
  4685  02C9  1303               	bcf	3,6	;RP1=0, select bank0
  4686  02CA  0820               	movf	?___ftmul,w
  4687  02CB  00B7               	movwf	FloatToString@f
  4688  02CC  0821               	movf	?___ftmul+1,w
  4689  02CD  00B8               	movwf	FloatToString@f+1
  4690  02CE  0822               	movf	?___ftmul+2,w
  4691  02CF  00B9               	movwf	FloatToString@f+2
  4692                           
  4693                           ;main.c: 98: value = (int)f;
  4694  02D0  0837               	movf	FloatToString@f,w
  4695  02D1  00F0               	movwf	?___fttol
  4696  02D2  0838               	movf	FloatToString@f+1,w
  4697  02D3  00F1               	movwf	?___fttol+1
  4698  02D4  0839               	movf	FloatToString@f+2,w
  4699  02D5  00F2               	movwf	?___fttol+2
  4700  02D6  120A  118A  2669   	fcall	___fttol
      +       120A  118A         
  4701  02DB  0871               	movf	?___fttol+1,w
  4702  02DC  1283               	bcf	3,5	;RP0=0, select bank0
  4703  02DD  1303               	bcf	3,6	;RP1=0, select bank0
  4704  02DE  01C4               	clrf	FloatToString@value+1
  4705  02DF  07C4               	addwf	FloatToString@value+1,f
  4706  02E0  0870               	movf	?___fttol,w
  4707  02E1  01C3               	clrf	FloatToString@value
  4708  02E2  07C3               	addwf	FloatToString@value,f
  4709                           
  4710                           ;main.c: 99: curr = '0' + value ;
  4711  02E3  0843               	movf	FloatToString@value,w
  4712  02E4  3E30               	addlw	48
  4713  02E5  00BB               	movwf	??_FloatToString
  4714  02E6  083B               	movf	??_FloatToString,w
  4715  02E7  00BF               	movwf	FloatToString@curr
  4716                           
  4717                           ;main.c: 100: str[pos++] = curr;
  4718  02E8  083F               	movf	FloatToString@curr,w
  4719  02E9  2A61               	goto	L9
  4720  02EA                     __end_of_FloatToString:	
  4721                           
  4722                           	psect	text29
  4723  0B71                     __ptext29:	
  4724 ;; *************** function ___wmul *****************
  4725 ;; Defined at:
  4726 ;;		line 3 in file "C:\Program Files (x86)\Microchip\xc8\v1.21\sources\pic\wmul.c"
  4727 ;; Parameters:    Size  Location     Type
  4728 ;;  multiplier      2    0[COMMON] unsigned int 
  4729 ;;  multiplicand    2    2[COMMON] unsigned int 
  4730 ;; Auto vars:     Size  Location     Type
  4731 ;;  product         2    4[COMMON] unsigned int 
  4732 ;; Return value:  Size  Location     Type
  4733 ;;                  2    0[COMMON] unsigned int 
  4734 ;; Registers used:
  4735 ;;		wreg, status,2, status,0
  4736 ;; Tracked objects:
  4737 ;;		On entry : 0/0
  4738 ;;		On exit  : 0/0
  4739 ;;		Unchanged: 0/0
  4740 ;; Data sizes:     COMMON   BANK0   BANK1   BANK3   BANK2
  4741 ;;      Params:         4       0       0       0       0
  4742 ;;      Locals:         2       0       0       0       0
  4743 ;;      Temps:          0       0       0       0       0
  4744 ;;      Totals:         6       0       0       0       0
  4745 ;;Total ram usage:        6 bytes
  4746 ;; Hardware stack levels used:    1
  4747 ;; This function calls:
  4748 ;;		Nothing
  4749 ;; This function is called by:
  4750 ;;		_FloatToString
  4751 ;; This function uses a non-reentrant model
  4752 ;;
  4753                           
  4754                           
  4755                           ;psect for function ___wmul
  4756  0B71                     ___wmul:	
  4757                           
  4758                           ;incstack = 0
  4759                           ; Regs used in ___wmul: [wreg+status,2+status,0]
  4760  0B71  01F4               	clrf	___wmul@product
  4761  0B72  01F5               	clrf	___wmul@product+1
  4762  0B73                     i1l2606:	
  4763  0B73  1C70               	btfss	___wmul@multiplier,0
  4764  0B74  2B7B               	goto	i1l652
  4765  0B75  0872               	movf	___wmul@multiplicand,w
  4766  0B76  07F4               	addwf	___wmul@product,f
  4767  0B77  1803               	skipnc
  4768  0B78  0AF5               	incf	___wmul@product+1,f
  4769  0B79  0873               	movf	___wmul@multiplicand+1,w
  4770  0B7A  07F5               	addwf	___wmul@product+1,f
  4771  0B7B                     i1l652:	
  4772  0B7B  3001               	movlw	1
  4773  0B7C                     u193_25:	
  4774  0B7C  1003               	clrc
  4775  0B7D  0DF2               	rlf	___wmul@multiplicand,f
  4776  0B7E  0DF3               	rlf	___wmul@multiplicand+1,f
  4777  0B7F  3EFF               	addlw	-1
  4778  0B80  1D03               	skipz
  4779  0B81  2B7C               	goto	u193_25
  4780  0B82  3001               	movlw	1
  4781  0B83                     u194_25:	
  4782  0B83  1003               	clrc
  4783  0B84  0CF1               	rrf	___wmul@multiplier+1,f
  4784  0B85  0CF0               	rrf	___wmul@multiplier,f
  4785  0B86  3EFF               	addlw	-1
  4786  0B87  1D03               	skipz
  4787  0B88  2B83               	goto	u194_25
  4788  0B89  0871               	movf	___wmul@multiplier+1,w
  4789  0B8A  0470               	iorwf	___wmul@multiplier,w
  4790  0B8B  1D03               	skipz
  4791  0B8C  2B73               	goto	i1l2606
  4792  0B8D  0875               	movf	___wmul@product+1,w
  4793  0B8E  01F1               	clrf	?___wmul+1
  4794  0B8F  07F1               	addwf	?___wmul+1,f
  4795  0B90  0874               	movf	___wmul@product,w
  4796  0B91  01F0               	clrf	?___wmul
  4797  0B92  07F0               	addwf	?___wmul,f
  4798  0B93  0008               	return
  4799  0B94                     __end_of___wmul:	
  4800                           
  4801                           	psect	text30
  4802  0B19                     __ptext30:	
  4803 ;; *************** function ___lwtoft *****************
  4804 ;; Defined at:
  4805 ;;		line 29 in file "C:\Program Files (x86)\Microchip\xc8\v1.21\sources\pic\lwtoft.c"
  4806 ;; Parameters:    Size  Location     Type
  4807 ;;  c               2   11[COMMON] unsigned int 
  4808 ;; Auto vars:     Size  Location     Type
  4809 ;;		None
  4810 ;; Return value:  Size  Location     Type
  4811 ;;                  3   11[COMMON] float 
  4812 ;; Registers used:
  4813 ;;		wreg, status,2, status,0, pclath, cstack
  4814 ;; Tracked objects:
  4815 ;;		On entry : 0/0
  4816 ;;		On exit  : 0/0
  4817 ;;		Unchanged: 0/0
  4818 ;; Data sizes:     COMMON   BANK0   BANK1   BANK3   BANK2
  4819 ;;      Params:         3       0       0       0       0
  4820 ;;      Locals:         0       0       0       0       0
  4821 ;;      Temps:          0       1       0       0       0
  4822 ;;      Totals:         3       1       0       0       0
  4823 ;;Total ram usage:        4 bytes
  4824 ;; Hardware stack levels used:    1
  4825 ;; Hardware stack levels required when called:    1
  4826 ;; This function calls:
  4827 ;;		___ftpack
  4828 ;; This function is called by:
  4829 ;;		_FloatToString
  4830 ;; This function uses a non-reentrant model
  4831 ;;
  4832                           
  4833                           
  4834                           ;psect for function ___lwtoft
  4835  0B19                     ___lwtoft:	
  4836                           
  4837                           ;incstack = 0
  4838                           ; Regs used in ___lwtoft: [wreg+status,2+status,0+pclath+cstack]
  4839  0B19  087B               	movf	___lwtoft@c,w
  4840  0B1A  00F0               	movwf	?___ftpack
  4841  0B1B  087C               	movf	___lwtoft@c+1,w
  4842  0B1C  00F1               	movwf	?___ftpack+1
  4843  0B1D  01F2               	clrf	?___ftpack+2
  4844  0B1E  308E               	movlw	142
  4845  0B1F  1283               	bcf	3,5	;RP0=0, select bank0
  4846  0B20  1303               	bcf	3,6	;RP1=0, select bank0
  4847  0B21  00A0               	movwf	??___lwtoft
  4848  0B22  0820               	movf	??___lwtoft,w
  4849  0B23  00F3               	movwf	?___ftpack+3
  4850  0B24  01F4               	clrf	?___ftpack+4
  4851  0B25  120A  158A  272C   	fcall	___ftpack
  4852  0B28  0870               	movf	?___ftpack,w
  4853  0B29  00FB               	movwf	?___lwtoft
  4854  0B2A  0871               	movf	?___ftpack+1,w
  4855  0B2B  00FC               	movwf	?___lwtoft+1
  4856  0B2C  0872               	movf	?___ftpack+2,w
  4857  0B2D  00FD               	movwf	?___lwtoft+2
  4858  0B2E  0008               	return
  4859  0B2F                     __end_of___lwtoft:	
  4860                           
  4861                           	psect	text31
  4862  0669                     __ptext31:	
  4863 ;; *************** function ___fttol *****************
  4864 ;; Defined at:
  4865 ;;		line 45 in file "C:\Program Files (x86)\Microchip\xc8\v1.21\sources\pic\fttol.c"
  4866 ;; Parameters:    Size  Location     Type
  4867 ;;  f1              3    0[COMMON] float 
  4868 ;; Auto vars:     Size  Location     Type
  4869 ;;  lval            4    9[COMMON] unsigned long 
  4870 ;;  exp1            1   13[COMMON] unsigned char 
  4871 ;;  sign1           1    8[COMMON] unsigned char 
  4872 ;; Return value:  Size  Location     Type
  4873 ;;                  4    0[COMMON] long 
  4874 ;; Registers used:
  4875 ;;		wreg, status,2, status,0
  4876 ;; Tracked objects:
  4877 ;;		On entry : 0/0
  4878 ;;		On exit  : 0/0
  4879 ;;		Unchanged: 0/0
  4880 ;; Data sizes:     COMMON   BANK0   BANK1   BANK3   BANK2
  4881 ;;      Params:         4       0       0       0       0
  4882 ;;      Locals:         6       0       0       0       0
  4883 ;;      Temps:          4       0       0       0       0
  4884 ;;      Totals:        14       0       0       0       0
  4885 ;;Total ram usage:       14 bytes
  4886 ;; Hardware stack levels used:    1
  4887 ;; This function calls:
  4888 ;;		Nothing
  4889 ;; This function is called by:
  4890 ;;		_FloatToString
  4891 ;;		_calculate_frequency
  4892 ;; This function uses a non-reentrant model
  4893 ;;
  4894                           
  4895                           
  4896                           ;psect for function ___fttol
  4897  0669                     ___fttol:	
  4898                           
  4899                           ;incstack = 0
  4900                           ; Regs used in ___fttol: [wreg+status,2+status,0]
  4901  0669  0870               	movf	___fttol@f1,w
  4902  066A  00F4               	movwf	??___fttol
  4903  066B  0871               	movf	___fttol@f1+1,w
  4904  066C  00F5               	movwf	??___fttol+1
  4905  066D  0872               	movf	___fttol@f1+2,w
  4906  066E  00F6               	movwf	??___fttol+2
  4907  066F  1003               	clrc
  4908  0670  0D75               	rlf	??___fttol+1,w
  4909  0671  0D76               	rlf	??___fttol+2,w
  4910  0672  00F7               	movwf	??___fttol+3
  4911  0673  0877               	movf	??___fttol+3,w
  4912  0674  00FD               	movwf	___fttol@exp1
  4913  0675  08FD               	movf	___fttol@exp1,f
  4914  0676  1D03               	skipz
  4915  0677  2E81               	goto	i1l2474
  4916  0678  3000               	movlw	0
  4917  0679  00F3               	movwf	?___fttol+3
  4918  067A  3000               	movlw	0
  4919  067B  00F2               	movwf	?___fttol+2
  4920  067C  3000               	movlw	0
  4921  067D  00F1               	movwf	?___fttol+1
  4922  067E  3000               	movlw	0
  4923  067F  00F0               	movwf	?___fttol
  4924  0680  0008               	return
  4925  0681                     i1l2474:	
  4926  0681  0870               	movf	___fttol@f1,w
  4927  0682  00F4               	movwf	??___fttol
  4928  0683  0871               	movf	___fttol@f1+1,w
  4929  0684  00F5               	movwf	??___fttol+1
  4930  0685  0872               	movf	___fttol@f1+2,w
  4931  0686  00F6               	movwf	??___fttol+2
  4932  0687  3017               	movlw	23
  4933  0688                     u157_25:	
  4934  0688  1003               	clrc
  4935  0689  0CF6               	rrf	??___fttol+2,f
  4936  068A  0CF5               	rrf	??___fttol+1,f
  4937  068B  0CF4               	rrf	??___fttol,f
  4938  068C  3EFF               	addlw	-1
  4939  068D  1D03               	skipz
  4940  068E  2E88               	goto	u157_25
  4941  068F  0874               	movf	??___fttol,w
  4942  0690  00F7               	movwf	??___fttol+3
  4943  0691  0877               	movf	??___fttol+3,w
  4944  0692  00F8               	movwf	___fttol@sign1
  4945  0693  17F1               	bsf	___fttol@f1+1,7
  4946  0694  30FF               	movlw	255
  4947  0695  05F0               	andwf	___fttol@f1,f
  4948  0696  30FF               	movlw	255
  4949  0697  05F1               	andwf	___fttol@f1+1,f
  4950  0698  3000               	movlw	0
  4951  0699  05F2               	andwf	___fttol@f1+2,f
  4952  069A  0870               	movf	___fttol@f1,w
  4953  069B  00F9               	movwf	___fttol@lval
  4954  069C  0871               	movf	___fttol@f1+1,w
  4955  069D  00FA               	movwf	___fttol@lval+1
  4956  069E  0872               	movf	___fttol@f1+2,w
  4957  069F  00FB               	movwf	___fttol@lval+2
  4958  06A0  01FC               	clrf	___fttol@lval+3
  4959  06A1  308E               	movlw	142
  4960  06A2  02FD               	subwf	___fttol@exp1,f
  4961  06A3  1FFD               	btfss	___fttol@exp1,7
  4962  06A4  2EC3               	goto	i1l2494
  4963  06A5  087D               	movf	___fttol@exp1,w
  4964  06A6  3A80               	xorlw	128
  4965  06A7  3E8F               	addlw	143
  4966  06A8  1803               	skipnc
  4967  06A9  2EB3               	goto	i1l2492
  4968  06AA  3000               	movlw	0
  4969  06AB  00F3               	movwf	?___fttol+3
  4970  06AC  3000               	movlw	0
  4971  06AD  00F2               	movwf	?___fttol+2
  4972  06AE  3000               	movlw	0
  4973  06AF  00F1               	movwf	?___fttol+1
  4974  06B0  3000               	movlw	0
  4975  06B1  00F0               	movwf	?___fttol
  4976  06B2  0008               	return
  4977  06B3                     i1l2492:	
  4978  06B3  3001               	movlw	1
  4979  06B4                     u160_25:	
  4980  06B4  1003               	clrc
  4981  06B5  0CFC               	rrf	___fttol@lval+3,f
  4982  06B6  0CFB               	rrf	___fttol@lval+2,f
  4983  06B7  0CFA               	rrf	___fttol@lval+1,f
  4984  06B8  0CF9               	rrf	___fttol@lval,f
  4985  06B9  3EFF               	addlw	-1
  4986  06BA  1D03               	skipz
  4987  06BB  2EB4               	goto	u160_25
  4988  06BC  3001               	movlw	1
  4989  06BD  00F4               	movwf	??___fttol
  4990  06BE  0874               	movf	??___fttol,w
  4991  06BF  07FD               	addwf	___fttol@exp1,f
  4992  06C0  1903               	btfsc	3,2
  4993  06C1  2EDE               	goto	i1l2504
  4994  06C2  2EB3               	goto	i1l2492
  4995  06C3                     i1l2494:	
  4996  06C3  3018               	movlw	24
  4997  06C4  027D               	subwf	___fttol@exp1,w
  4998  06C5  1C03               	skipc
  4999  06C6  2EDB               	goto	i1l2502
  5000  06C7  3000               	movlw	0
  5001  06C8  00F3               	movwf	?___fttol+3
  5002  06C9  3000               	movlw	0
  5003  06CA  00F2               	movwf	?___fttol+2
  5004  06CB  3000               	movlw	0
  5005  06CC  00F1               	movwf	?___fttol+1
  5006  06CD  3000               	movlw	0
  5007  06CE  00F0               	movwf	?___fttol
  5008  06CF  0008               	return
  5009  06D0                     i1l2500:	
  5010  06D0  3001               	movlw	1
  5011  06D1  00F4               	movwf	??___fttol
  5012  06D2                     u163_25:	
  5013  06D2  1003               	clrc
  5014  06D3  0DF9               	rlf	___fttol@lval,f
  5015  06D4  0DFA               	rlf	___fttol@lval+1,f
  5016  06D5  0DFB               	rlf	___fttol@lval+2,f
  5017  06D6  0DFC               	rlf	___fttol@lval+3,f
  5018  06D7  0BF4               	decfsz	??___fttol,f
  5019  06D8  2ED2               	goto	u163_25
  5020  06D9  3001               	movlw	1
  5021  06DA  02FD               	subwf	___fttol@exp1,f
  5022  06DB                     i1l2502:	
  5023  06DB  08FD               	movf	___fttol@exp1,f
  5024  06DC  1D03               	skipz
  5025  06DD  2ED0               	goto	i1l2500
  5026  06DE                     i1l2504:	
  5027  06DE  0878               	movf	___fttol@sign1,w
  5028  06DF  1903               	btfsc	3,2
  5029  06E0  2EEC               	goto	i1l2508
  5030  06E1  09F9               	comf	___fttol@lval,f
  5031  06E2  09FA               	comf	___fttol@lval+1,f
  5032  06E3  09FB               	comf	___fttol@lval+2,f
  5033  06E4  09FC               	comf	___fttol@lval+3,f
  5034  06E5  0AF9               	incf	___fttol@lval,f
  5035  06E6  1903               	skipnz
  5036  06E7  0AFA               	incf	___fttol@lval+1,f
  5037  06E8  1903               	skipnz
  5038  06E9  0AFB               	incf	___fttol@lval+2,f
  5039  06EA  1903               	skipnz
  5040  06EB  0AFC               	incf	___fttol@lval+3,f
  5041  06EC                     i1l2508:	
  5042  06EC  087C               	movf	___fttol@lval+3,w
  5043  06ED  00F3               	movwf	?___fttol+3
  5044  06EE  087B               	movf	___fttol@lval+2,w
  5045  06EF  00F2               	movwf	?___fttol+2
  5046  06F0  087A               	movf	___fttol@lval+1,w
  5047  06F1  00F1               	movwf	?___fttol+1
  5048  06F2  0879               	movf	___fttol@lval,w
  5049  06F3  00F0               	movwf	?___fttol
  5050  06F4  0008               	return
  5051  06F5                     __end_of___fttol:	
  5052                           
  5053                           	psect	text32
  5054  0A94                     __ptext32:	
  5055 ;; *************** function ___ftneg *****************
  5056 ;; Defined at:
  5057 ;;		line 16 in file "C:\Program Files (x86)\Microchip\xc8\v1.21\sources\pic\ftneg.c"
  5058 ;; Parameters:    Size  Location     Type
  5059 ;;  f1              3    8[COMMON] float 
  5060 ;; Auto vars:     Size  Location     Type
  5061 ;;		None
  5062 ;; Return value:  Size  Location     Type
  5063 ;;                  3    8[COMMON] float 
  5064 ;; Registers used:
  5065 ;;		wreg
  5066 ;; Tracked objects:
  5067 ;;		On entry : 0/0
  5068 ;;		On exit  : 0/0
  5069 ;;		Unchanged: 0/0
  5070 ;; Data sizes:     COMMON   BANK0   BANK1   BANK3   BANK2
  5071 ;;      Params:         3       0       0       0       0
  5072 ;;      Locals:         0       0       0       0       0
  5073 ;;      Temps:          0       0       0       0       0
  5074 ;;      Totals:         3       0       0       0       0
  5075 ;;Total ram usage:        3 bytes
  5076 ;; Hardware stack levels used:    1
  5077 ;; This function calls:
  5078 ;;		Nothing
  5079 ;; This function is called by:
  5080 ;;		_FloatToString
  5081 ;; This function uses a non-reentrant model
  5082 ;;
  5083                           
  5084                           
  5085                           ;psect for function ___ftneg
  5086  0A94                     ___ftneg:	
  5087                           
  5088                           ;incstack = 0
  5089                           ; Regs used in ___ftneg: [wreg]
  5090  0A94  087A               	movf	___ftneg@f1+2,w
  5091  0A95  0479               	iorwf	___ftneg@f1+1,w
  5092  0A96  0478               	iorwf	___ftneg@f1,w
  5093  0A97  1903               	skipnz
  5094  0A98  0008               	return
  5095  0A99  3080               	movlw	128
  5096  0A9A  06FA               	xorwf	___ftneg@f1+2,f
  5097  0A9B  0008               	return
  5098  0A9C                     __end_of___ftneg:	
  5099                           
  5100                           	psect	text33
  5101  04E0                     __ptext33:	
  5102 ;; *************** function ___ftmul *****************
  5103 ;; Defined at:
  5104 ;;		line 52 in file "C:\Program Files (x86)\Microchip\xc8\v1.21\sources\pic\ftmul.c"
  5105 ;; Parameters:    Size  Location     Type
  5106 ;;  f1              3    0[BANK0 ] float 
  5107 ;;  f2              3    3[BANK0 ] float 
  5108 ;; Auto vars:     Size  Location     Type
  5109 ;;  f3_as_produc    3   11[BANK0 ] unsigned um
  5110 ;;  sign            1   15[BANK0 ] unsigned char 
  5111 ;;  cntr            1   14[BANK0 ] unsigned char 
  5112 ;;  exp             1   10[BANK0 ] unsigned char 
  5113 ;; Return value:  Size  Location     Type
  5114 ;;                  3    0[BANK0 ] float 
  5115 ;; Registers used:
  5116 ;;		wreg, status,2, status,0, pclath, cstack
  5117 ;; Tracked objects:
  5118 ;;		On entry : 0/0
  5119 ;;		On exit  : 0/0
  5120 ;;		Unchanged: 0/0
  5121 ;; Data sizes:     COMMON   BANK0   BANK1   BANK3   BANK2
  5122 ;;      Params:         0       6       0       0       0
  5123 ;;      Locals:         0       6       0       0       0
  5124 ;;      Temps:          0       4       0       0       0
  5125 ;;      Totals:         0      16       0       0       0
  5126 ;;Total ram usage:       16 bytes
  5127 ;; Hardware stack levels used:    1
  5128 ;; Hardware stack levels required when called:    1
  5129 ;; This function calls:
  5130 ;;		___ftpack
  5131 ;; This function is called by:
  5132 ;;		_FloatToString
  5133 ;;		_ReadVoltage
  5134 ;;		_calculate_frequency
  5135 ;; This function uses a non-reentrant model
  5136 ;;
  5137                           
  5138                           
  5139                           ;psect for function ___ftmul
  5140  04E0                     ___ftmul:	
  5141                           
  5142                           ;incstack = 0
  5143                           ; Regs used in ___ftmul: [wreg+status,2+status,0+pclath+cstack]
  5144  04E0  1283               	bcf	3,5	;RP0=0, select bank0
  5145  04E1  1303               	bcf	3,6	;RP1=0, select bank0
  5146  04E2  0820               	movf	___ftmul@f1,w
  5147  04E3  00A6               	movwf	??___ftmul
  5148  04E4  0821               	movf	___ftmul@f1+1,w
  5149  04E5  00A7               	movwf	??___ftmul+1
  5150  04E6  0822               	movf	___ftmul@f1+2,w
  5151  04E7  00A8               	movwf	??___ftmul+2
  5152  04E8  1003               	clrc
  5153  04E9  0D27               	rlf	??___ftmul+1,w
  5154  04EA  0D28               	rlf	??___ftmul+2,w
  5155  04EB  00A9               	movwf	??___ftmul+3
  5156  04EC  0829               	movf	??___ftmul+3,w
  5157  04ED  00AA               	movwf	___ftmul@exp
  5158  04EE  08AA               	movf	___ftmul@exp,f
  5159  04EF  1D03               	skipz
  5160  04F0  2CF8               	goto	i1l2798
  5161  04F1  3000               	movlw	0
  5162  04F2  00A0               	movwf	?___ftmul
  5163  04F3  3000               	movlw	0
  5164  04F4  00A1               	movwf	?___ftmul+1
  5165  04F5  3000               	movlw	0
  5166  04F6  00A2               	movwf	?___ftmul+2
  5167  04F7  0008               	return
  5168  04F8                     i1l2798:	
  5169  04F8  0823               	movf	___ftmul@f2,w
  5170  04F9  00A6               	movwf	??___ftmul
  5171  04FA  0824               	movf	___ftmul@f2+1,w
  5172  04FB  00A7               	movwf	??___ftmul+1
  5173  04FC  0825               	movf	___ftmul@f2+2,w
  5174  04FD  00A8               	movwf	??___ftmul+2
  5175  04FE  1003               	clrc
  5176  04FF  0D27               	rlf	??___ftmul+1,w
  5177  0500  0D28               	rlf	??___ftmul+2,w
  5178  0501  00A9               	movwf	??___ftmul+3
  5179  0502  0829               	movf	??___ftmul+3,w
  5180  0503  00AF               	movwf	___ftmul@sign
  5181  0504  08AF               	movf	___ftmul@sign,f
  5182  0505  1D03               	skipz
  5183  0506  2D0E               	goto	i1l2804
  5184  0507  3000               	movlw	0
  5185  0508  00A0               	movwf	?___ftmul
  5186  0509  3000               	movlw	0
  5187  050A  00A1               	movwf	?___ftmul+1
  5188  050B  3000               	movlw	0
  5189  050C  00A2               	movwf	?___ftmul+2
  5190  050D  0008               	return
  5191  050E                     i1l2804:	
  5192  050E  082F               	movf	___ftmul@sign,w
  5193  050F  3E7B               	addlw	123
  5194  0510  00A6               	movwf	??___ftmul
  5195  0511  0826               	movf	??___ftmul,w
  5196  0512  07AA               	addwf	___ftmul@exp,f
  5197  0513  0820               	movf	___ftmul@f1,w
  5198  0514  00A6               	movwf	??___ftmul
  5199  0515  0821               	movf	___ftmul@f1+1,w
  5200  0516  00A7               	movwf	??___ftmul+1
  5201  0517  0822               	movf	___ftmul@f1+2,w
  5202  0518  00A8               	movwf	??___ftmul+2
  5203  0519  3010               	movlw	16
  5204  051A                     u238_25:	
  5205  051A  1003               	clrc
  5206  051B  0CA8               	rrf	??___ftmul+2,f
  5207  051C  0CA7               	rrf	??___ftmul+1,f
  5208  051D  0CA6               	rrf	??___ftmul,f
  5209  051E  3EFF               	addlw	-1
  5210  051F  1D03               	skipz
  5211  0520  2D1A               	goto	u238_25
  5212  0521  0826               	movf	??___ftmul,w
  5213  0522  00A9               	movwf	??___ftmul+3
  5214  0523  0829               	movf	??___ftmul+3,w
  5215  0524  00AF               	movwf	___ftmul@sign
  5216  0525  0823               	movf	___ftmul@f2,w
  5217  0526  00A6               	movwf	??___ftmul
  5218  0527  0824               	movf	___ftmul@f2+1,w
  5219  0528  00A7               	movwf	??___ftmul+1
  5220  0529  0825               	movf	___ftmul@f2+2,w
  5221  052A  00A8               	movwf	??___ftmul+2
  5222  052B  3010               	movlw	16
  5223  052C                     u239_25:	
  5224  052C  1003               	clrc
  5225  052D  0CA8               	rrf	??___ftmul+2,f
  5226  052E  0CA7               	rrf	??___ftmul+1,f
  5227  052F  0CA6               	rrf	??___ftmul,f
  5228  0530  3EFF               	addlw	-1
  5229  0531  1D03               	skipz
  5230  0532  2D2C               	goto	u239_25
  5231  0533  0826               	movf	??___ftmul,w
  5232  0534  00A9               	movwf	??___ftmul+3
  5233  0535  0829               	movf	??___ftmul+3,w
  5234  0536  06AF               	xorwf	___ftmul@sign,f
  5235  0537  3080               	movlw	128
  5236  0538  00A6               	movwf	??___ftmul
  5237  0539  0826               	movf	??___ftmul,w
  5238  053A  05AF               	andwf	___ftmul@sign,f
  5239  053B  17A1               	bsf	___ftmul@f1+1,7
  5240  053C  17A4               	bsf	___ftmul@f2+1,7
  5241  053D  30FF               	movlw	255
  5242  053E  05A3               	andwf	___ftmul@f2,f
  5243  053F  30FF               	movlw	255
  5244  0540  05A4               	andwf	___ftmul@f2+1,f
  5245  0541  3000               	movlw	0
  5246  0542  05A5               	andwf	___ftmul@f2+2,f
  5247  0543  3000               	movlw	0
  5248  0544  00AB               	movwf	___ftmul@f3_as_product
  5249  0545  3000               	movlw	0
  5250  0546  00AC               	movwf	___ftmul@f3_as_product+1
  5251  0547  3000               	movlw	0
  5252  0548  00AD               	movwf	___ftmul@f3_as_product+2
  5253  0549  3007               	movlw	7
  5254  054A  00A6               	movwf	??___ftmul
  5255  054B  0826               	movf	??___ftmul,w
  5256  054C  00AE               	movwf	___ftmul@cntr
  5257  054D                     i1l2816:	
  5258  054D  1C20               	btfss	___ftmul@f1,0
  5259  054E  2D5D               	goto	i1l2820
  5260  054F  0823               	movf	___ftmul@f2,w
  5261  0550  07AB               	addwf	___ftmul@f3_as_product,f
  5262  0551  0824               	movf	___ftmul@f2+1,w
  5263  0552  1103               	clrz
  5264  0553  1803               	skipnc
  5265  0554  0A24               	incf	___ftmul@f2+1,w
  5266  0555  1D03               	btfss	3,2
  5267  0556  07AC               	addwf	___ftmul@f3_as_product+1,f
  5268  0557  0825               	movf	___ftmul@f2+2,w
  5269  0558  1103               	clrz
  5270  0559  1803               	skipnc
  5271  055A  0A25               	incf	___ftmul@f2+2,w
  5272  055B  1D03               	btfss	3,2
  5273  055C  07AD               	addwf	___ftmul@f3_as_product+2,f
  5274  055D                     i1l2820:	
  5275  055D  3001               	movlw	1
  5276  055E                     u242_25:	
  5277  055E  1003               	clrc
  5278  055F  0CA2               	rrf	___ftmul@f1+2,f
  5279  0560  0CA1               	rrf	___ftmul@f1+1,f
  5280  0561  0CA0               	rrf	___ftmul@f1,f
  5281  0562  3EFF               	addlw	-1
  5282  0563  1D03               	skipz
  5283  0564  2D5E               	goto	u242_25
  5284  0565  3001               	movlw	1
  5285  0566                     u243_25:	
  5286  0566  1003               	clrc
  5287  0567  0DA3               	rlf	___ftmul@f2,f
  5288  0568  0DA4               	rlf	___ftmul@f2+1,f
  5289  0569  0DA5               	rlf	___ftmul@f2+2,f
  5290  056A  3EFF               	addlw	-1
  5291  056B  1D03               	skipz
  5292  056C  2D66               	goto	u243_25
  5293  056D  3001               	movlw	1
  5294  056E  02AE               	subwf	___ftmul@cntr,f
  5295  056F  1D03               	btfss	3,2
  5296  0570  2D4D               	goto	i1l2816
  5297  0571  3009               	movlw	9
  5298  0572  00A6               	movwf	??___ftmul
  5299  0573  0826               	movf	??___ftmul,w
  5300  0574  00AE               	movwf	___ftmul@cntr
  5301  0575                     i1l2828:	
  5302  0575  1C20               	btfss	___ftmul@f1,0
  5303  0576  2D85               	goto	i1l2832
  5304  0577  0823               	movf	___ftmul@f2,w
  5305  0578  07AB               	addwf	___ftmul@f3_as_product,f
  5306  0579  0824               	movf	___ftmul@f2+1,w
  5307  057A  1103               	clrz
  5308  057B  1803               	skipnc
  5309  057C  0A24               	incf	___ftmul@f2+1,w
  5310  057D  1D03               	btfss	3,2
  5311  057E  07AC               	addwf	___ftmul@f3_as_product+1,f
  5312  057F  0825               	movf	___ftmul@f2+2,w
  5313  0580  1103               	clrz
  5314  0581  1803               	skipnc
  5315  0582  0A25               	incf	___ftmul@f2+2,w
  5316  0583  1D03               	btfss	3,2
  5317  0584  07AD               	addwf	___ftmul@f3_as_product+2,f
  5318  0585                     i1l2832:	
  5319  0585  3001               	movlw	1
  5320  0586                     u247_25:	
  5321  0586  1003               	clrc
  5322  0587  0CA2               	rrf	___ftmul@f1+2,f
  5323  0588  0CA1               	rrf	___ftmul@f1+1,f
  5324  0589  0CA0               	rrf	___ftmul@f1,f
  5325  058A  3EFF               	addlw	-1
  5326  058B  1D03               	skipz
  5327  058C  2D86               	goto	u247_25
  5328  058D  3001               	movlw	1
  5329  058E                     u248_25:	
  5330  058E  1003               	clrc
  5331  058F  0CAD               	rrf	___ftmul@f3_as_product+2,f
  5332  0590  0CAC               	rrf	___ftmul@f3_as_product+1,f
  5333  0591  0CAB               	rrf	___ftmul@f3_as_product,f
  5334  0592  3EFF               	addlw	-1
  5335  0593  1D03               	skipz
  5336  0594  2D8E               	goto	u248_25
  5337  0595  3001               	movlw	1
  5338  0596  02AE               	subwf	___ftmul@cntr,f
  5339  0597  1D03               	btfss	3,2
  5340  0598  2D75               	goto	i1l2828
  5341  0599  082B               	movf	___ftmul@f3_as_product,w
  5342  059A  00F0               	movwf	?___ftpack
  5343  059B  082C               	movf	___ftmul@f3_as_product+1,w
  5344  059C  00F1               	movwf	?___ftpack+1
  5345  059D  082D               	movf	___ftmul@f3_as_product+2,w
  5346  059E  00F2               	movwf	?___ftpack+2
  5347  059F  082A               	movf	___ftmul@exp,w
  5348  05A0  00A6               	movwf	??___ftmul
  5349  05A1  0826               	movf	??___ftmul,w
  5350  05A2  00F3               	movwf	?___ftpack+3
  5351  05A3  082F               	movf	___ftmul@sign,w
  5352  05A4  00A7               	movwf	??___ftmul+1
  5353  05A5  0827               	movf	??___ftmul+1,w
  5354  05A6  00F4               	movwf	?___ftpack+4
  5355  05A7  120A  158A  272C   	fcall	___ftpack
  5356  05AA  0870               	movf	?___ftpack,w
  5357  05AB  1283               	bcf	3,5	;RP0=0, select bank0
  5358  05AC  1303               	bcf	3,6	;RP1=0, select bank0
  5359  05AD  00A0               	movwf	?___ftmul
  5360  05AE  0871               	movf	?___ftpack+1,w
  5361  05AF  00A1               	movwf	?___ftmul+1
  5362  05B0  0872               	movf	?___ftpack+2,w
  5363  05B1  00A2               	movwf	?___ftmul+2
  5364  05B2  0008               	return
  5365  05B3                     __end_of___ftmul:	
  5366                           
  5367                           	psect	text34
  5368  0F2C                     __ptext34:	
  5369 ;; *************** function ___ftpack *****************
  5370 ;; Defined at:
  5371 ;;		line 63 in file "C:\Program Files (x86)\Microchip\xc8\v1.21\sources\pic\float.c"
  5372 ;; Parameters:    Size  Location     Type
  5373 ;;  arg             3    0[COMMON] unsigned um
  5374 ;;  exp             1    3[COMMON] unsigned char 
  5375 ;;  sign            1    4[COMMON] unsigned char 
  5376 ;; Auto vars:     Size  Location     Type
  5377 ;;		None
  5378 ;; Return value:  Size  Location     Type
  5379 ;;                  3    0[COMMON] float 
  5380 ;; Registers used:
  5381 ;;		wreg, status,2, status,0
  5382 ;; Tracked objects:
  5383 ;;		On entry : 0/0
  5384 ;;		On exit  : 0/0
  5385 ;;		Unchanged: 0/0
  5386 ;; Data sizes:     COMMON   BANK0   BANK1   BANK3   BANK2
  5387 ;;      Params:         5       0       0       0       0
  5388 ;;      Locals:         0       0       0       0       0
  5389 ;;      Temps:          3       0       0       0       0
  5390 ;;      Totals:         8       0       0       0       0
  5391 ;;Total ram usage:        8 bytes
  5392 ;; Hardware stack levels used:    1
  5393 ;; This function calls:
  5394 ;;		Nothing
  5395 ;; This function is called by:
  5396 ;;		___awtoft
  5397 ;;		___ftadd
  5398 ;;		___ftdiv
  5399 ;;		___ftmul
  5400 ;;		___lltoft
  5401 ;;		___lwtoft
  5402 ;; This function uses a non-reentrant model
  5403 ;;
  5404                           
  5405                           
  5406                           ;psect for function ___ftpack
  5407  0F2C                     ___ftpack:	
  5408                           
  5409                           ;incstack = 0
  5410                           ; Regs used in ___ftpack: [wreg+status,2+status,0]
  5411  0F2C  0873               	movf	___ftpack@exp,w
  5412  0F2D  1903               	btfsc	3,2
  5413  0F2E  2F34               	goto	i1l2422
  5414  0F2F  0872               	movf	___ftpack@arg+2,w
  5415  0F30  0471               	iorwf	___ftpack@arg+1,w
  5416  0F31  0470               	iorwf	___ftpack@arg,w
  5417  0F32  1D03               	skipz
  5418  0F33  2F47               	goto	i1l2428
  5419  0F34                     i1l2422:	
  5420  0F34  3000               	movlw	0
  5421  0F35  00F0               	movwf	?___ftpack
  5422  0F36  3000               	movlw	0
  5423  0F37  00F1               	movwf	?___ftpack+1
  5424  0F38  3000               	movlw	0
  5425  0F39  00F2               	movwf	?___ftpack+2
  5426  0F3A  0008               	return
  5427  0F3B                     i1l2426:	
  5428  0F3B  3001               	movlw	1
  5429  0F3C  00F5               	movwf	??___ftpack
  5430  0F3D  0875               	movf	??___ftpack,w
  5431  0F3E  07F3               	addwf	___ftpack@exp,f
  5432  0F3F  3001               	movlw	1
  5433  0F40                     u142_25:	
  5434  0F40  1003               	clrc
  5435  0F41  0CF2               	rrf	___ftpack@arg+2,f
  5436  0F42  0CF1               	rrf	___ftpack@arg+1,f
  5437  0F43  0CF0               	rrf	___ftpack@arg,f
  5438  0F44  3EFF               	addlw	-1
  5439  0F45  1D03               	skipz
  5440  0F46  2F40               	goto	u142_25
  5441  0F47                     i1l2428:	
  5442  0F47  30FE               	movlw	254
  5443  0F48  0572               	andwf	___ftpack@arg+2,w
  5444  0F49  1903               	btfsc	3,2
  5445  0F4A  2F62               	goto	i1l426
  5446  0F4B  2F3B               	goto	i1l2426
  5447  0F4C                     i1l2430:	
  5448  0F4C  3001               	movlw	1
  5449  0F4D  00F5               	movwf	??___ftpack
  5450  0F4E  0875               	movf	??___ftpack,w
  5451  0F4F  07F3               	addwf	___ftpack@exp,f
  5452  0F50  3001               	movlw	1
  5453  0F51  07F0               	addwf	___ftpack@arg,f
  5454  0F52  3000               	movlw	0
  5455  0F53  1803               	skipnc
  5456  0F54  3001               	movlw	1
  5457  0F55  07F1               	addwf	___ftpack@arg+1,f
  5458  0F56  3000               	movlw	0
  5459  0F57  1803               	skipnc
  5460  0F58  3001               	movlw	1
  5461  0F59  07F2               	addwf	___ftpack@arg+2,f
  5462  0F5A  3001               	movlw	1
  5463  0F5B                     u144_25:	
  5464  0F5B  1003               	clrc
  5465  0F5C  0CF2               	rrf	___ftpack@arg+2,f
  5466  0F5D  0CF1               	rrf	___ftpack@arg+1,f
  5467  0F5E  0CF0               	rrf	___ftpack@arg,f
  5468  0F5F  3EFF               	addlw	-1
  5469  0F60  1D03               	skipz
  5470  0F61  2F5B               	goto	u144_25
  5471  0F62                     i1l426:	
  5472  0F62  30FF               	movlw	255
  5473  0F63  0572               	andwf	___ftpack@arg+2,w
  5474  0F64  1903               	btfsc	3,2
  5475  0F65  2F71               	goto	i1l2438
  5476  0F66  2F4C               	goto	i1l2430
  5477  0F67                     i1l2436:	
  5478  0F67  3001               	movlw	1
  5479  0F68  02F3               	subwf	___ftpack@exp,f
  5480  0F69  3001               	movlw	1
  5481  0F6A                     u146_25:	
  5482  0F6A  1003               	clrc
  5483  0F6B  0DF0               	rlf	___ftpack@arg,f
  5484  0F6C  0DF1               	rlf	___ftpack@arg+1,f
  5485  0F6D  0DF2               	rlf	___ftpack@arg+2,f
  5486  0F6E  3EFF               	addlw	-1
  5487  0F6F  1D03               	skipz
  5488  0F70  2F6A               	goto	u146_25
  5489  0F71                     i1l2438:	
  5490  0F71  1FF1               	btfss	___ftpack@arg+1,7
  5491  0F72  2F67               	goto	i1l2436
  5492  0F73  1873               	btfsc	___ftpack@exp,0
  5493  0F74  2F7B               	goto	i1l432
  5494  0F75  30FF               	movlw	255
  5495  0F76  05F0               	andwf	___ftpack@arg,f
  5496  0F77  307F               	movlw	127
  5497  0F78  05F1               	andwf	___ftpack@arg+1,f
  5498  0F79  30FF               	movlw	255
  5499  0F7A  05F2               	andwf	___ftpack@arg+2,f
  5500  0F7B                     i1l432:	
  5501  0F7B  1003               	clrc
  5502  0F7C  0CF3               	rrf	___ftpack@exp,f
  5503  0F7D  0873               	movf	___ftpack@exp,w
  5504  0F7E  00F5               	movwf	??___ftpack
  5505  0F7F  01F6               	clrf	??___ftpack+1
  5506  0F80  01F7               	clrf	??___ftpack+2
  5507  0F81  3010               	movlw	16
  5508  0F82                     u149_25:	
  5509  0F82  1003               	clrc
  5510  0F83  0DF5               	rlf	??___ftpack,f
  5511  0F84  0DF6               	rlf	??___ftpack+1,f
  5512  0F85  0DF7               	rlf	??___ftpack+2,f
  5513  0F86  3EFF               	addlw	-1
  5514  0F87  1D03               	skipz
  5515  0F88  2F82               	goto	u149_25
  5516  0F89  0875               	movf	??___ftpack,w
  5517  0F8A  04F0               	iorwf	___ftpack@arg,f
  5518  0F8B  0876               	movf	??___ftpack+1,w
  5519  0F8C  04F1               	iorwf	___ftpack@arg+1,f
  5520  0F8D  0877               	movf	??___ftpack+2,w
  5521  0F8E  04F2               	iorwf	___ftpack@arg+2,f
  5522  0F8F  0874               	movf	___ftpack@sign,w
  5523  0F90  1903               	btfsc	3,2
  5524  0F91  0008               	return
  5525  0F92  17F2               	bsf	___ftpack@arg+2,7
  5526  0F93  0008               	return
  5527  0F94                     __end_of___ftpack:	
  5528                           
  5529                           	psect	text35
  5530  0E71                     __ptext35:	
  5531 ;; *************** function ___ftge *****************
  5532 ;; Defined at:
  5533 ;;		line 5 in file "C:\Program Files (x86)\Microchip\xc8\v1.21\sources\pic\ftge.c"
  5534 ;; Parameters:    Size  Location     Type
  5535 ;;  ff1             3    0[COMMON] float 
  5536 ;;  ff2             3    3[COMMON] float 
  5537 ;; Auto vars:     Size  Location     Type
  5538 ;;		None
  5539 ;; Return value:  Size  Location     Type
  5540 ;;		None               void
  5541 ;; Registers used:
  5542 ;;		wreg, status,2, status,0
  5543 ;; Tracked objects:
  5544 ;;		On entry : 0/0
  5545 ;;		On exit  : 0/0
  5546 ;;		Unchanged: 0/0
  5547 ;; Data sizes:     COMMON   BANK0   BANK1   BANK3   BANK2
  5548 ;;      Params:         6       0       0       0       0
  5549 ;;      Locals:         0       0       0       0       0
  5550 ;;      Temps:          6       0       0       0       0
  5551 ;;      Totals:        12       0       0       0       0
  5552 ;;Total ram usage:       12 bytes
  5553 ;; Hardware stack levels used:    1
  5554 ;; This function calls:
  5555 ;;		Nothing
  5556 ;; This function is called by:
  5557 ;;		_FloatToString
  5558 ;; This function uses a non-reentrant model
  5559 ;;
  5560                           
  5561                           
  5562                           ;psect for function ___ftge
  5563  0E71                     ___ftge:	
  5564                           
  5565                           ;incstack = 0
  5566                           ; Regs used in ___ftge: [wreg+status,2+status,0]
  5567  0E71  1FF2               	btfss	___ftge@ff1+2,7
  5568  0E72  2E98               	goto	i1l2452
  5569  0E73  3000               	movlw	0
  5570  0E74  00F6               	movwf	??___ftge
  5571  0E75  3000               	movlw	0
  5572  0E76  00F7               	movwf	??___ftge+1
  5573  0E77  3080               	movlw	128
  5574  0E78  00F8               	movwf	??___ftge+2
  5575  0E79  0970               	comf	___ftge@ff1,w
  5576  0E7A  00F9               	movwf	??___ftge+3
  5577  0E7B  0971               	comf	___ftge@ff1+1,w
  5578  0E7C  00FA               	movwf	??___ftge+4
  5579  0E7D  0972               	comf	___ftge@ff1+2,w
  5580  0E7E  00FB               	movwf	??___ftge+5
  5581  0E7F  0AF9               	incf	??___ftge+3,f
  5582  0E80  1903               	skipnz
  5583  0E81  0AFA               	incf	??___ftge+4,f
  5584  0E82  1903               	skipnz
  5585  0E83  0AFB               	incf	??___ftge+5,f
  5586  0E84  0879               	movf	??___ftge+3,w
  5587  0E85  07F6               	addwf	??___ftge,f
  5588  0E86  087A               	movf	??___ftge+4,w
  5589  0E87  1803               	skipnc
  5590  0E88  0F7A               	incfsz	??___ftge+4,w
  5591  0E89  2E8B               	goto	u152_21
  5592  0E8A  2E8C               	goto	u152_22
  5593  0E8B                     u152_21:	
  5594  0E8B  07F7               	addwf	??___ftge+1,f
  5595  0E8C                     u152_22:	
  5596  0E8C  087B               	movf	??___ftge+5,w
  5597  0E8D  1803               	skipnc
  5598  0E8E  0F7B               	incfsz	??___ftge+5,w
  5599  0E8F  2E91               	goto	u152_23
  5600  0E90  2E92               	goto	u152_24
  5601  0E91                     u152_23:	
  5602  0E91  07F8               	addwf	??___ftge+2,f
  5603  0E92                     u152_24:	
  5604  0E92  0876               	movf	??___ftge,w
  5605  0E93  00F0               	movwf	___ftge@ff1
  5606  0E94  0877               	movf	??___ftge+1,w
  5607  0E95  00F1               	movwf	___ftge@ff1+1
  5608  0E96  0878               	movf	??___ftge+2,w
  5609  0E97  00F2               	movwf	___ftge@ff1+2
  5610  0E98                     i1l2452:	
  5611  0E98  1FF5               	btfss	___ftge@ff2+2,7
  5612  0E99  2EBF               	goto	i1l2456
  5613  0E9A  3000               	movlw	0
  5614  0E9B  00F6               	movwf	??___ftge
  5615  0E9C  3000               	movlw	0
  5616  0E9D  00F7               	movwf	??___ftge+1
  5617  0E9E  3080               	movlw	128
  5618  0E9F  00F8               	movwf	??___ftge+2
  5619  0EA0  0973               	comf	___ftge@ff2,w
  5620  0EA1  00F9               	movwf	??___ftge+3
  5621  0EA2  0974               	comf	___ftge@ff2+1,w
  5622  0EA3  00FA               	movwf	??___ftge+4
  5623  0EA4  0975               	comf	___ftge@ff2+2,w
  5624  0EA5  00FB               	movwf	??___ftge+5
  5625  0EA6  0AF9               	incf	??___ftge+3,f
  5626  0EA7  1903               	skipnz
  5627  0EA8  0AFA               	incf	??___ftge+4,f
  5628  0EA9  1903               	skipnz
  5629  0EAA  0AFB               	incf	??___ftge+5,f
  5630  0EAB  0879               	movf	??___ftge+3,w
  5631  0EAC  07F6               	addwf	??___ftge,f
  5632  0EAD  087A               	movf	??___ftge+4,w
  5633  0EAE  1803               	skipnc
  5634  0EAF  0F7A               	incfsz	??___ftge+4,w
  5635  0EB0  2EB2               	goto	u154_21
  5636  0EB1  2EB3               	goto	u154_22
  5637  0EB2                     u154_21:	
  5638  0EB2  07F7               	addwf	??___ftge+1,f
  5639  0EB3                     u154_22:	
  5640  0EB3  087B               	movf	??___ftge+5,w
  5641  0EB4  1803               	skipnc
  5642  0EB5  0F7B               	incfsz	??___ftge+5,w
  5643  0EB6  2EB8               	goto	u154_23
  5644  0EB7  2EB9               	goto	u154_24
  5645  0EB8                     u154_23:	
  5646  0EB8  07F8               	addwf	??___ftge+2,f
  5647  0EB9                     u154_24:	
  5648  0EB9  0876               	movf	??___ftge,w
  5649  0EBA  00F3               	movwf	___ftge@ff2
  5650  0EBB  0877               	movf	??___ftge+1,w
  5651  0EBC  00F4               	movwf	___ftge@ff2+1
  5652  0EBD  0878               	movf	??___ftge+2,w
  5653  0EBE  00F5               	movwf	___ftge@ff2+2
  5654  0EBF                     i1l2456:	
  5655  0EBF  3080               	movlw	128
  5656  0EC0  06F2               	xorwf	___ftge@ff1+2,f
  5657  0EC1  3080               	movlw	128
  5658  0EC2  06F5               	xorwf	___ftge@ff2+2,f
  5659  0EC3  0875               	movf	___ftge@ff2+2,w
  5660  0EC4  0272               	subwf	___ftge@ff1+2,w
  5661  0EC5  1D03               	skipz
  5662  0EC6  0008               	return
  5663  0EC7  0874               	movf	___ftge@ff2+1,w
  5664  0EC8  0271               	subwf	___ftge@ff1+1,w
  5665  0EC9  1D03               	skipz
  5666  0ECA  0008               	return
  5667  0ECB  0873               	movf	___ftge@ff2,w
  5668  0ECC  0270               	subwf	___ftge@ff1,w
  5669  0ECD  0008               	return
  5670  0ECE                     __end_of___ftge:	
  5671                           
  5672                           	psect	text36
  5673  02EA                     __ptext36:	
  5674 ;; *************** function ___ftadd *****************
  5675 ;; Defined at:
  5676 ;;		line 87 in file "C:\Program Files (x86)\Microchip\xc8\v1.21\sources\pic\ftadd.c"
  5677 ;; Parameters:    Size  Location     Type
  5678 ;;  f1              3    1[BANK0 ] float 
  5679 ;;  f2              3    4[BANK0 ] float 
  5680 ;; Auto vars:     Size  Location     Type
  5681 ;;  exp1            1   13[BANK0 ] unsigned char 
  5682 ;;  exp2            1   12[BANK0 ] unsigned char 
  5683 ;;  sign            1   11[BANK0 ] unsigned char 
  5684 ;; Return value:  Size  Location     Type
  5685 ;;                  3    1[BANK0 ] float 
  5686 ;; Registers used:
  5687 ;;		wreg, status,2, status,0, pclath, cstack
  5688 ;; Tracked objects:
  5689 ;;		On entry : 0/0
  5690 ;;		On exit  : 0/0
  5691 ;;		Unchanged: 0/0
  5692 ;; Data sizes:     COMMON   BANK0   BANK1   BANK3   BANK2
  5693 ;;      Params:         0       6       0       0       0
  5694 ;;      Locals:         0       3       0       0       0
  5695 ;;      Temps:          0       4       0       0       0
  5696 ;;      Totals:         0      13       0       0       0
  5697 ;;Total ram usage:       13 bytes
  5698 ;; Hardware stack levels used:    1
  5699 ;; Hardware stack levels required when called:    1
  5700 ;; This function calls:
  5701 ;;		___ftpack
  5702 ;; This function is called by:
  5703 ;;		_FloatToString
  5704 ;;		_ReadVoltage
  5705 ;; This function uses a non-reentrant model
  5706 ;;
  5707                           
  5708                           
  5709                           ;psect for function ___ftadd
  5710  02EA                     ___ftadd:	
  5711                           
  5712                           ;incstack = 0
  5713                           ; Regs used in ___ftadd: [wreg+status,2+status,0+pclath+cstack]
  5714  02EA  1283               	bcf	3,5	;RP0=0, select bank0
  5715  02EB  1303               	bcf	3,6	;RP1=0, select bank0
  5716  02EC  0821               	movf	___ftadd@f1,w
  5717  02ED  00A7               	movwf	??___ftadd
  5718  02EE  0822               	movf	___ftadd@f1+1,w
  5719  02EF  00A8               	movwf	??___ftadd+1
  5720  02F0  0823               	movf	___ftadd@f1+2,w
  5721  02F1  00A9               	movwf	??___ftadd+2
  5722  02F2  1003               	clrc
  5723  02F3  0D28               	rlf	??___ftadd+1,w
  5724  02F4  0D29               	rlf	??___ftadd+2,w
  5725  02F5  00AA               	movwf	??___ftadd+3
  5726  02F6  082A               	movf	??___ftadd+3,w
  5727  02F7  00AD               	movwf	___ftadd@exp1
  5728  02F8  0824               	movf	___ftadd@f2,w
  5729  02F9  00A7               	movwf	??___ftadd
  5730  02FA  0825               	movf	___ftadd@f2+1,w
  5731  02FB  00A8               	movwf	??___ftadd+1
  5732  02FC  0826               	movf	___ftadd@f2+2,w
  5733  02FD  00A9               	movwf	??___ftadd+2
  5734  02FE  1003               	clrc
  5735  02FF  0D28               	rlf	??___ftadd+1,w
  5736  0300  0D29               	rlf	??___ftadd+2,w
  5737  0301  00AA               	movwf	??___ftadd+3
  5738  0302  082A               	movf	??___ftadd+3,w
  5739  0303  00AC               	movwf	___ftadd@exp2
  5740  0304  082D               	movf	___ftadd@exp1,w
  5741  0305  1903               	btfsc	3,2
  5742  0306  2B13               	goto	i1l2686
  5743  0307  082C               	movf	___ftadd@exp2,w
  5744  0308  022D               	subwf	___ftadd@exp1,w
  5745  0309  1803               	skipnc
  5746  030A  2B1A               	goto	i1l2690
  5747  030B  032D               	decf	___ftadd@exp1,w
  5748  030C  3AFF               	xorlw	255
  5749  030D  072C               	addwf	___ftadd@exp2,w
  5750  030E  00A7               	movwf	??___ftadd
  5751  030F  3019               	movlw	25
  5752  0310  0227               	subwf	??___ftadd,w
  5753  0311  1C03               	skipc
  5754  0312  2B1A               	goto	i1l2690
  5755  0313                     i1l2686:	
  5756  0313  0824               	movf	___ftadd@f2,w
  5757  0314  00A1               	movwf	?___ftadd
  5758  0315  0825               	movf	___ftadd@f2+1,w
  5759  0316  00A2               	movwf	?___ftadd+1
  5760  0317  0826               	movf	___ftadd@f2+2,w
  5761  0318  00A3               	movwf	?___ftadd+2
  5762  0319  0008               	return
  5763  031A                     i1l2690:	
  5764  031A  082C               	movf	___ftadd@exp2,w
  5765  031B  1903               	btfsc	3,2
  5766  031C  0008               	return
  5767  031D  082D               	movf	___ftadd@exp1,w
  5768  031E  022C               	subwf	___ftadd@exp2,w
  5769  031F  1803               	skipnc
  5770  0320  2B29               	goto	i1l2696
  5771  0321  032C               	decf	___ftadd@exp2,w
  5772  0322  3AFF               	xorlw	255
  5773  0323  072D               	addwf	___ftadd@exp1,w
  5774  0324  00A7               	movwf	??___ftadd
  5775  0325  3019               	movlw	25
  5776  0326  0227               	subwf	??___ftadd,w
  5777  0327  1803               	btfsc	3,0
  5778  0328  0008               	return
  5779  0329                     i1l2696:	
  5780  0329  3006               	movlw	6
  5781  032A  00A7               	movwf	??___ftadd
  5782  032B  0827               	movf	??___ftadd,w
  5783  032C  00AB               	movwf	___ftadd@sign
  5784  032D  1BA3               	btfsc	___ftadd@f1+2,7
  5785  032E  17AB               	bsf	___ftadd@sign,7
  5786  032F  1BA6               	btfsc	___ftadd@f2+2,7
  5787  0330  172B               	bsf	___ftadd@sign,6
  5788  0331  17A2               	bsf	___ftadd@f1+1,7
  5789  0332  30FF               	movlw	255
  5790  0333  05A1               	andwf	___ftadd@f1,f
  5791  0334  30FF               	movlw	255
  5792  0335  05A2               	andwf	___ftadd@f1+1,f
  5793  0336  3000               	movlw	0
  5794  0337  05A3               	andwf	___ftadd@f1+2,f
  5795  0338  17A5               	bsf	___ftadd@f2+1,7
  5796  0339  30FF               	movlw	255
  5797  033A  05A4               	andwf	___ftadd@f2,f
  5798  033B  30FF               	movlw	255
  5799  033C  05A5               	andwf	___ftadd@f2+1,f
  5800  033D  3000               	movlw	0
  5801  033E  05A6               	andwf	___ftadd@f2+2,f
  5802  033F  082C               	movf	___ftadd@exp2,w
  5803  0340  022D               	subwf	___ftadd@exp1,w
  5804  0341  1803               	skipnc
  5805  0342  2B69               	goto	i1l2718
  5806  0343                     i1l2708:	
  5807  0343  3001               	movlw	1
  5808  0344                     u213_25:	
  5809  0344  1003               	clrc
  5810  0345  0DA4               	rlf	___ftadd@f2,f
  5811  0346  0DA5               	rlf	___ftadd@f2+1,f
  5812  0347  0DA6               	rlf	___ftadd@f2+2,f
  5813  0348  3EFF               	addlw	-1
  5814  0349  1D03               	skipz
  5815  034A  2B44               	goto	u213_25
  5816  034B  3001               	movlw	1
  5817  034C  02AC               	subwf	___ftadd@exp2,f
  5818  034D  082C               	movf	___ftadd@exp2,w
  5819  034E  062D               	xorwf	___ftadd@exp1,w
  5820  034F  1903               	skipnz
  5821  0350  2B64               	goto	i1l2716
  5822  0351  3001               	movlw	1
  5823  0352  02AB               	subwf	___ftadd@sign,f
  5824  0353  082B               	movf	___ftadd@sign,w
  5825  0354  3907               	andlw	7
  5826  0355  1903               	btfsc	3,2
  5827  0356  2B64               	goto	i1l2716
  5828  0357  2B43               	goto	i1l2708
  5829  0358                     i1l2714:	
  5830  0358  3001               	movlw	1
  5831  0359                     u216_25:	
  5832  0359  1003               	clrc
  5833  035A  0CA3               	rrf	___ftadd@f1+2,f
  5834  035B  0CA2               	rrf	___ftadd@f1+1,f
  5835  035C  0CA1               	rrf	___ftadd@f1,f
  5836  035D  3EFF               	addlw	-1
  5837  035E  1D03               	skipz
  5838  035F  2B59               	goto	u216_25
  5839  0360  3001               	movlw	1
  5840  0361  00A7               	movwf	??___ftadd
  5841  0362  0827               	movf	??___ftadd,w
  5842  0363  07AD               	addwf	___ftadd@exp1,f
  5843  0364                     i1l2716:	
  5844  0364  082D               	movf	___ftadd@exp1,w
  5845  0365  062C               	xorwf	___ftadd@exp2,w
  5846  0366  1903               	btfsc	3,2
  5847  0367  2B92               	goto	i1l455
  5848  0368  2B58               	goto	i1l2714
  5849  0369                     i1l2718:	
  5850  0369  082D               	movf	___ftadd@exp1,w
  5851  036A  022C               	subwf	___ftadd@exp2,w
  5852  036B  1803               	skipnc
  5853  036C  2B92               	goto	i1l455
  5854  036D                     i1l2720:	
  5855  036D  3001               	movlw	1
  5856  036E                     u219_25:	
  5857  036E  1003               	clrc
  5858  036F  0DA1               	rlf	___ftadd@f1,f
  5859  0370  0DA2               	rlf	___ftadd@f1+1,f
  5860  0371  0DA3               	rlf	___ftadd@f1+2,f
  5861  0372  3EFF               	addlw	-1
  5862  0373  1D03               	skipz
  5863  0374  2B6E               	goto	u219_25
  5864  0375  3001               	movlw	1
  5865  0376  02AD               	subwf	___ftadd@exp1,f
  5866  0377  082C               	movf	___ftadd@exp2,w
  5867  0378  062D               	xorwf	___ftadd@exp1,w
  5868  0379  1903               	skipnz
  5869  037A  2B8E               	goto	i1l2728
  5870  037B  3001               	movlw	1
  5871  037C  02AB               	subwf	___ftadd@sign,f
  5872  037D  082B               	movf	___ftadd@sign,w
  5873  037E  3907               	andlw	7
  5874  037F  1903               	btfsc	3,2
  5875  0380  2B8E               	goto	i1l2728
  5876  0381  2B6D               	goto	i1l2720
  5877  0382                     i1l2726:	
  5878  0382  3001               	movlw	1
  5879  0383                     u222_25:	
  5880  0383  1003               	clrc
  5881  0384  0CA6               	rrf	___ftadd@f2+2,f
  5882  0385  0CA5               	rrf	___ftadd@f2+1,f
  5883  0386  0CA4               	rrf	___ftadd@f2,f
  5884  0387  3EFF               	addlw	-1
  5885  0388  1D03               	skipz
  5886  0389  2B83               	goto	u222_25
  5887  038A  3001               	movlw	1
  5888  038B  00A7               	movwf	??___ftadd
  5889  038C  0827               	movf	??___ftadd,w
  5890  038D  07AC               	addwf	___ftadd@exp2,f
  5891  038E                     i1l2728:	
  5892  038E  082D               	movf	___ftadd@exp1,w
  5893  038F  062C               	xorwf	___ftadd@exp2,w
  5894  0390  1D03               	skipz
  5895  0391  2B82               	goto	i1l2726
  5896  0392                     i1l455:	
  5897  0392  1FAB               	btfss	___ftadd@sign,7
  5898  0393  2BA4               	goto	i1l2732
  5899  0394  30FF               	movlw	255
  5900  0395  06A1               	xorwf	___ftadd@f1,f
  5901  0396  30FF               	movlw	255
  5902  0397  06A2               	xorwf	___ftadd@f1+1,f
  5903  0398  30FF               	movlw	255
  5904  0399  06A3               	xorwf	___ftadd@f1+2,f
  5905  039A  3001               	movlw	1
  5906  039B  07A1               	addwf	___ftadd@f1,f
  5907  039C  3000               	movlw	0
  5908  039D  1803               	skipnc
  5909  039E  3001               	movlw	1
  5910  039F  07A2               	addwf	___ftadd@f1+1,f
  5911  03A0  3000               	movlw	0
  5912  03A1  1803               	skipnc
  5913  03A2  3001               	movlw	1
  5914  03A3  07A3               	addwf	___ftadd@f1+2,f
  5915  03A4                     i1l2732:	
  5916  03A4  1F2B               	btfss	___ftadd@sign,6
  5917  03A5  2BB6               	goto	i1l2736
  5918  03A6  30FF               	movlw	255
  5919  03A7  06A4               	xorwf	___ftadd@f2,f
  5920  03A8  30FF               	movlw	255
  5921  03A9  06A5               	xorwf	___ftadd@f2+1,f
  5922  03AA  30FF               	movlw	255
  5923  03AB  06A6               	xorwf	___ftadd@f2+2,f
  5924  03AC  3001               	movlw	1
  5925  03AD  07A4               	addwf	___ftadd@f2,f
  5926  03AE  3000               	movlw	0
  5927  03AF  1803               	skipnc
  5928  03B0  3001               	movlw	1
  5929  03B1  07A5               	addwf	___ftadd@f2+1,f
  5930  03B2  3000               	movlw	0
  5931  03B3  1803               	skipnc
  5932  03B4  3001               	movlw	1
  5933  03B5  07A6               	addwf	___ftadd@f2+2,f
  5934  03B6                     i1l2736:	
  5935  03B6  01AB               	clrf	___ftadd@sign
  5936  03B7  0821               	movf	___ftadd@f1,w
  5937  03B8  07A4               	addwf	___ftadd@f2,f
  5938  03B9  0822               	movf	___ftadd@f1+1,w
  5939  03BA  1103               	clrz
  5940  03BB  1803               	skipnc
  5941  03BC  0A22               	incf	___ftadd@f1+1,w
  5942  03BD  1D03               	btfss	3,2
  5943  03BE  07A5               	addwf	___ftadd@f2+1,f
  5944  03BF  0823               	movf	___ftadd@f1+2,w
  5945  03C0  1103               	clrz
  5946  03C1  1803               	skipnc
  5947  03C2  0A23               	incf	___ftadd@f1+2,w
  5948  03C3  1D03               	btfss	3,2
  5949  03C4  07A6               	addwf	___ftadd@f2+2,f
  5950  03C5  1FA6               	btfss	___ftadd@f2+2,7
  5951  03C6  2BD9               	goto	i1l2746
  5952  03C7  30FF               	movlw	255
  5953  03C8  06A4               	xorwf	___ftadd@f2,f
  5954  03C9  30FF               	movlw	255
  5955  03CA  06A5               	xorwf	___ftadd@f2+1,f
  5956  03CB  30FF               	movlw	255
  5957  03CC  06A6               	xorwf	___ftadd@f2+2,f
  5958  03CD  3001               	movlw	1
  5959  03CE  07A4               	addwf	___ftadd@f2,f
  5960  03CF  3000               	movlw	0
  5961  03D0  1803               	skipnc
  5962  03D1  3001               	movlw	1
  5963  03D2  07A5               	addwf	___ftadd@f2+1,f
  5964  03D3  3000               	movlw	0
  5965  03D4  1803               	skipnc
  5966  03D5  3001               	movlw	1
  5967  03D6  07A6               	addwf	___ftadd@f2+2,f
  5968  03D7  01AB               	clrf	___ftadd@sign
  5969  03D8  0AAB               	incf	___ftadd@sign,f
  5970  03D9                     i1l2746:	
  5971  03D9  0824               	movf	___ftadd@f2,w
  5972  03DA  00F0               	movwf	?___ftpack
  5973  03DB  0825               	movf	___ftadd@f2+1,w
  5974  03DC  00F1               	movwf	?___ftpack+1
  5975  03DD  0826               	movf	___ftadd@f2+2,w
  5976  03DE  00F2               	movwf	?___ftpack+2
  5977  03DF  082D               	movf	___ftadd@exp1,w
  5978  03E0  00A7               	movwf	??___ftadd
  5979  03E1  0827               	movf	??___ftadd,w
  5980  03E2  00F3               	movwf	?___ftpack+3
  5981  03E3  082B               	movf	___ftadd@sign,w
  5982  03E4  00A8               	movwf	??___ftadd+1
  5983  03E5  0828               	movf	??___ftadd+1,w
  5984  03E6  00F4               	movwf	?___ftpack+4
  5985  03E7  120A  158A  272C   	fcall	___ftpack
  5986  03EA  0870               	movf	?___ftpack,w
  5987  03EB  1283               	bcf	3,5	;RP0=0, select bank0
  5988  03EC  1303               	bcf	3,6	;RP1=0, select bank0
  5989  03ED  00A1               	movwf	?___ftadd
  5990  03EE  0871               	movf	?___ftpack+1,w
  5991  03EF  00A2               	movwf	?___ftadd+1
  5992  03F0  0872               	movf	?___ftpack+2,w
  5993  03F1  00A3               	movwf	?___ftadd+2
  5994  03F2  0008               	return
  5995  03F3                     __end_of___ftadd:	
  5996                           
  5997                           	psect	text37
  5998  0BDC                     __ptext37:	
  5999 ;; *************** function _strlen *****************
  6000 ;; Defined at:
  6001 ;;		line 5 in file "C:\Program Files (x86)\Microchip\xc8\v1.21\sources\common\strlen.c"
  6002 ;; Parameters:    Size  Location     Type
  6003 ;;  s               1    wreg     PTR const unsigned char 
  6004 ;;		 -> ISR@buffer(10), 
  6005 ;; Auto vars:     Size  Location     Type
  6006 ;;  s               1    6[COMMON] PTR const unsigned char 
  6007 ;;		 -> ISR@buffer(10), 
  6008 ;;  cp              1    7[COMMON] PTR const unsigned char 
  6009 ;;		 -> ISR@buffer(10), 
  6010 ;; Return value:  Size  Location     Type
  6011 ;;                  2    0[COMMON] unsigned int 
  6012 ;; Registers used:
  6013 ;;		wreg, fsr0l, fsr0h, status,2, status,0
  6014 ;; Tracked objects:
  6015 ;;		On entry : 0/0
  6016 ;;		On exit  : 0/0
  6017 ;;		Unchanged: 0/0
  6018 ;; Data sizes:     COMMON   BANK0   BANK1   BANK3   BANK2
  6019 ;;      Params:         2       0       0       0       0
  6020 ;;      Locals:         2       0       0       0       0
  6021 ;;      Temps:          4       0       0       0       0
  6022 ;;      Totals:         8       0       0       0       0
  6023 ;;Total ram usage:        8 bytes
  6024 ;; Hardware stack levels used:    1
  6025 ;; This function calls:
  6026 ;;		Nothing
  6027 ;; This function is called by:
  6028 ;;		_FloatToString
  6029 ;; This function uses a non-reentrant model
  6030 ;;
  6031                           
  6032                           
  6033                           ;psect for function _strlen
  6034  0BDC                     _strlen:	
  6035                           
  6036                           ;incstack = 0
  6037                           ; Regs used in _strlen: [wreg-fsr0h+status,2+status,0]
  6038                           ;strlen@s stored from wreg
  6039  0BDC  00F6               	movwf	strlen@s
  6040  0BDD  0876               	movf	strlen@s,w
  6041  0BDE  00F2               	movwf	??_strlen
  6042  0BDF  0872               	movf	??_strlen,w
  6043  0BE0  00F7               	movwf	strlen@cp
  6044  0BE1                     i1l2320:	
  6045  0BE1  0877               	movf	strlen@cp,w
  6046  0BE2  0084               	movwf	4
  6047  0BE3  1383               	bcf	3,7	;select IRP bank0
  6048  0BE4  0880               	movf	0,f
  6049  0BE5  1903               	btfsc	3,2
  6050  0BE6  2BEC               	goto	i1l2322
  6051  0BE7  3001               	movlw	1
  6052  0BE8  00F2               	movwf	??_strlen
  6053  0BE9  0872               	movf	??_strlen,w
  6054  0BEA  07F7               	addwf	strlen@cp,f
  6055  0BEB  2BE1               	goto	i1l2320
  6056  0BEC                     i1l2322:	
  6057  0BEC  0876               	movf	strlen@s,w
  6058  0BED  00F2               	movwf	??_strlen
  6059  0BEE  3000               	movlw	0
  6060  0BEF  00F3               	movwf	??_strlen+1
  6061  0BF0  09F2               	comf	??_strlen,f
  6062  0BF1  09F3               	comf	??_strlen+1,f
  6063  0BF2  0AF2               	incf	??_strlen,f
  6064  0BF3  1903               	skipnz
  6065  0BF4  0AF3               	incf	??_strlen+1,f
  6066  0BF5  0877               	movf	strlen@cp,w
  6067  0BF6  00F4               	movwf	??_strlen+2
  6068  0BF7  3000               	movlw	0
  6069  0BF8  00F5               	movwf	??_strlen+3
  6070  0BF9  0872               	movf	??_strlen,w
  6071  0BFA  0774               	addwf	??_strlen+2,w
  6072  0BFB  00F0               	movwf	?_strlen
  6073  0BFC  0873               	movf	??_strlen+1,w
  6074  0BFD  1803               	skipnc
  6075  0BFE  0A73               	incf	??_strlen+1,w
  6076  0BFF  0775               	addwf	??_strlen+3,w
  6077  0C00  00F1               	movwf	?_strlen+1
  6078  0C01  0008               	return
  6079  0C02                     __end_of_strlen:	
  6080                           
  6081                           	psect	text38
  6082  06F5                     __ptext38:	
  6083 ;; *************** function _utoa *****************
  6084 ;; Defined at:
  6085 ;;		line 18 in file "C:\Program Files (x86)\Microchip\xc8\v1.21\sources\common\itoa.c"
  6086 ;; Parameters:    Size  Location     Type
  6087 ;;  buf             1    wreg     PTR unsigned char 
  6088 ;;		 -> ISR@buffer(10), 
  6089 ;;  val             2    8[COMMON] unsigned int 
  6090 ;;  base            2   10[COMMON] int 
  6091 ;; Auto vars:     Size  Location     Type
  6092 ;;  buf             1    3[BANK0 ] PTR unsigned char 
  6093 ;;		 -> ISR@buffer(10), 
  6094 ;;  v               2    0[BANK0 ] unsigned int 
  6095 ;;  c               1    2[BANK0 ] unsigned char 
  6096 ;; Return value:  Size  Location     Type
  6097 ;;                  1    wreg      PTR unsigned char 
  6098 ;; Registers used:
  6099 ;;		wreg, fsr0l, fsr0h, status,2, status,0, pclath, cstack
  6100 ;; Tracked objects:
  6101 ;;		On entry : 0/0
  6102 ;;		On exit  : 0/0
  6103 ;;		Unchanged: 0/0
  6104 ;; Data sizes:     COMMON   BANK0   BANK1   BANK3   BANK2
  6105 ;;      Params:         4       0       0       0       0
  6106 ;;      Locals:         0       4       0       0       0
  6107 ;;      Temps:          1       0       0       0       0
  6108 ;;      Totals:         5       4       0       0       0
  6109 ;;Total ram usage:        9 bytes
  6110 ;; Hardware stack levels used:    1
  6111 ;; Hardware stack levels required when called:    1
  6112 ;; This function calls:
  6113 ;;		___lwdiv
  6114 ;;		___lwmod
  6115 ;; This function is called by:
  6116 ;;		_FloatToString
  6117 ;; This function uses a non-reentrant model
  6118 ;;
  6119                           
  6120                           
  6121                           ;psect for function _utoa
  6122  06F5                     _utoa:	
  6123                           
  6124                           ;incstack = 0
  6125                           ; Regs used in _utoa: [wreg-fsr0h+status,2+status,0+pclath+cstack]
  6126                           ;utoa@buf stored from wreg
  6127  06F5  1283               	bcf	3,5	;RP0=0, select bank0
  6128  06F6  1303               	bcf	3,6	;RP1=0, select bank0
  6129  06F7  00A3               	movwf	utoa@buf
  6130  06F8  0879               	movf	utoa@val+1,w
  6131  06F9  01A1               	clrf	utoa@v+1
  6132  06FA  07A1               	addwf	utoa@v+1,f
  6133  06FB  0878               	movf	utoa@val,w
  6134  06FC  01A0               	clrf	utoa@v
  6135  06FD  07A0               	addwf	utoa@v,f
  6136  06FE                     i1l2618:	
  6137  06FE  087B               	movf	utoa@base+1,w
  6138  06FF  01F1               	clrf	?___lwdiv+1
  6139  0700  07F1               	addwf	?___lwdiv+1,f
  6140  0701  087A               	movf	utoa@base,w
  6141  0702  01F0               	clrf	?___lwdiv
  6142  0703  07F0               	addwf	?___lwdiv,f
  6143  0704  0821               	movf	utoa@v+1,w
  6144  0705  01F3               	clrf	?___lwdiv+3
  6145  0706  07F3               	addwf	?___lwdiv+3,f
  6146  0707  0820               	movf	utoa@v,w
  6147  0708  01F2               	clrf	?___lwdiv+2
  6148  0709  07F2               	addwf	?___lwdiv+2,f
  6149  070A  120A  158A  24BF   	fcall	___lwdiv
      +       120A  118A         
  6150  070F  0871               	movf	?___lwdiv+1,w
  6151  0710  1283               	bcf	3,5	;RP0=0, select bank0
  6152  0711  1303               	bcf	3,6	;RP1=0, select bank0
  6153  0712  01A1               	clrf	utoa@v+1
  6154  0713  07A1               	addwf	utoa@v+1,f
  6155  0714  0870               	movf	?___lwdiv,w
  6156  0715  01A0               	clrf	utoa@v
  6157  0716  07A0               	addwf	utoa@v,f
  6158  0717  3001               	movlw	1
  6159  0718  00FC               	movwf	??_utoa
  6160  0719  087C               	movf	??_utoa,w
  6161  071A  07A3               	addwf	utoa@buf,f
  6162  071B  0821               	movf	utoa@v+1,w
  6163  071C  0420               	iorwf	utoa@v,w
  6164  071D  1D03               	skipz
  6165  071E  2EFE               	goto	i1l2618
  6166  071F  0823               	movf	utoa@buf,w
  6167  0720  0084               	movwf	4
  6168  0721  1383               	bcf	3,7	;select IRP bank0
  6169  0722  0180               	clrf	0
  6170  0723  3001               	movlw	1
  6171  0724  02A3               	subwf	utoa@buf,f
  6172  0725                     i1l2628:	
  6173  0725  087B               	movf	utoa@base+1,w
  6174  0726  01F1               	clrf	?___lwmod+1
  6175  0727  07F1               	addwf	?___lwmod+1,f
  6176  0728  087A               	movf	utoa@base,w
  6177  0729  01F0               	clrf	?___lwmod
  6178  072A  07F0               	addwf	?___lwmod,f
  6179  072B  0879               	movf	utoa@val+1,w
  6180  072C  01F3               	clrf	?___lwmod+3
  6181  072D  07F3               	addwf	?___lwmod+3,f
  6182  072E  0878               	movf	utoa@val,w
  6183  072F  01F2               	clrf	?___lwmod+2
  6184  0730  07F2               	addwf	?___lwmod+2,f
  6185  0731  120A  158A  248B   	fcall	___lwmod
      +       120A  118A         
  6186  0736  0870               	movf	?___lwmod,w
  6187  0737  00FC               	movwf	??_utoa
  6188  0738  087C               	movf	??_utoa,w
  6189  0739  1283               	bcf	3,5	;RP0=0, select bank0
  6190  073A  1303               	bcf	3,6	;RP1=0, select bank0
  6191  073B  00A2               	movwf	utoa@c
  6192  073C  087B               	movf	utoa@base+1,w
  6193  073D  01F1               	clrf	?___lwdiv+1
  6194  073E  07F1               	addwf	?___lwdiv+1,f
  6195  073F  087A               	movf	utoa@base,w
  6196  0740  01F0               	clrf	?___lwdiv
  6197  0741  07F0               	addwf	?___lwdiv,f
  6198  0742  0879               	movf	utoa@val+1,w
  6199  0743  01F3               	clrf	?___lwdiv+3
  6200  0744  07F3               	addwf	?___lwdiv+3,f
  6201  0745  0878               	movf	utoa@val,w
  6202  0746  01F2               	clrf	?___lwdiv+2
  6203  0747  07F2               	addwf	?___lwdiv+2,f
  6204  0748  120A  158A  24BF   	fcall	___lwdiv
      +       120A  118A         
  6205  074D  0871               	movf	?___lwdiv+1,w
  6206  074E  01F9               	clrf	utoa@val+1
  6207  074F  07F9               	addwf	utoa@val+1,f
  6208  0750  0870               	movf	?___lwdiv,w
  6209  0751  01F8               	clrf	utoa@val
  6210  0752  07F8               	addwf	utoa@val,f
  6211  0753  300A               	movlw	10
  6212  0754  1283               	bcf	3,5	;RP0=0, select bank0
  6213  0755  1303               	bcf	3,6	;RP1=0, select bank0
  6214  0756  0222               	subwf	utoa@c,w
  6215  0757  1C03               	skipc
  6216  0758  2F5D               	goto	i1l529
  6217  0759  3007               	movlw	7
  6218  075A  00FC               	movwf	??_utoa
  6219  075B  087C               	movf	??_utoa,w
  6220  075C  07A2               	addwf	utoa@c,f
  6221  075D                     i1l529:	
  6222  075D  3030               	movlw	48
  6223  075E  00FC               	movwf	??_utoa
  6224  075F  087C               	movf	??_utoa,w
  6225  0760  07A2               	addwf	utoa@c,f
  6226  0761  0822               	movf	utoa@c,w
  6227  0762  00FC               	movwf	??_utoa
  6228  0763  0823               	movf	utoa@buf,w
  6229  0764  0084               	movwf	4
  6230  0765  087C               	movf	??_utoa,w
  6231  0766  1383               	bcf	3,7	;select IRP bank0
  6232  0767  0080               	movwf	0
  6233  0768  3001               	movlw	1
  6234  0769  02A3               	subwf	utoa@buf,f
  6235  076A  0879               	movf	utoa@val+1,w
  6236  076B  0478               	iorwf	utoa@val,w
  6237  076C  1D03               	skipz
  6238  076D  2F25               	goto	i1l2628
  6239                           
  6240                           ;	Return value of _utoa is never used
  6241  076E  3001               	movlw	1
  6242  076F  00FC               	movwf	??_utoa
  6243  0770  087C               	movf	??_utoa,w
  6244  0771  07A3               	addwf	utoa@buf,f
  6245  0772  0008               	return
  6246  0773                     __end_of_utoa:	
  6247                           
  6248                           	psect	text39
  6249  0C8B                     __ptext39:	
  6250 ;; *************** function ___lwmod *****************
  6251 ;; Defined at:
  6252 ;;		line 5 in file "C:\Program Files (x86)\Microchip\xc8\v1.21\sources\pic\lwmod.c"
  6253 ;; Parameters:    Size  Location     Type
  6254 ;;  divisor         2    0[COMMON] unsigned int 
  6255 ;;  dividend        2    2[COMMON] unsigned int 
  6256 ;; Auto vars:     Size  Location     Type
  6257 ;;  counter         1    5[COMMON] unsigned char 
  6258 ;; Return value:  Size  Location     Type
  6259 ;;                  2    0[COMMON] unsigned int 
  6260 ;; Registers used:
  6261 ;;		wreg, status,2, status,0
  6262 ;; Tracked objects:
  6263 ;;		On entry : 0/0
  6264 ;;		On exit  : 0/0
  6265 ;;		Unchanged: 0/0
  6266 ;; Data sizes:     COMMON   BANK0   BANK1   BANK3   BANK2
  6267 ;;      Params:         4       0       0       0       0
  6268 ;;      Locals:         1       0       0       0       0
  6269 ;;      Temps:          1       0       0       0       0
  6270 ;;      Totals:         6       0       0       0       0
  6271 ;;Total ram usage:        6 bytes
  6272 ;; Hardware stack levels used:    1
  6273 ;; This function calls:
  6274 ;;		Nothing
  6275 ;; This function is called by:
  6276 ;;		_utoa
  6277 ;; This function uses a non-reentrant model
  6278 ;;
  6279                           
  6280                           
  6281                           ;psect for function ___lwmod
  6282  0C8B                     ___lwmod:	
  6283                           
  6284                           ;incstack = 0
  6285                           ; Regs used in ___lwmod: [wreg+status,2+status,0]
  6286  0C8B  0871               	movf	___lwmod@divisor+1,w
  6287  0C8C  0470               	iorwf	___lwmod@divisor,w
  6288  0C8D  1903               	skipnz
  6289  0C8E  2CB8               	goto	i1l2600
  6290  0C8F  01F5               	clrf	___lwmod@counter
  6291  0C90  0AF5               	incf	___lwmod@counter,f
  6292  0C91                     i1l2590:	
  6293  0C91  1BF1               	btfsc	___lwmod@divisor+1,7
  6294  0C92  2C9F               	goto	i1l2592
  6295  0C93  3001               	movlw	1
  6296  0C94                     u187_25:	
  6297  0C94  1003               	clrc
  6298  0C95  0DF0               	rlf	___lwmod@divisor,f
  6299  0C96  0DF1               	rlf	___lwmod@divisor+1,f
  6300  0C97  3EFF               	addlw	-1
  6301  0C98  1D03               	skipz
  6302  0C99  2C94               	goto	u187_25
  6303  0C9A  3001               	movlw	1
  6304  0C9B  00F4               	movwf	??___lwmod
  6305  0C9C  0874               	movf	??___lwmod,w
  6306  0C9D  07F5               	addwf	___lwmod@counter,f
  6307  0C9E  2C91               	goto	i1l2590
  6308  0C9F                     i1l2592:	
  6309  0C9F  0871               	movf	___lwmod@divisor+1,w
  6310  0CA0  0273               	subwf	___lwmod@dividend+1,w
  6311  0CA1  1D03               	skipz
  6312  0CA2  2CA5               	goto	u189_25
  6313  0CA3  0870               	movf	___lwmod@divisor,w
  6314  0CA4  0272               	subwf	___lwmod@dividend,w
  6315  0CA5                     u189_25:	
  6316  0CA5  1C03               	skipc
  6317  0CA6  2CAD               	goto	i1l2596
  6318  0CA7  0870               	movf	___lwmod@divisor,w
  6319  0CA8  02F2               	subwf	___lwmod@dividend,f
  6320  0CA9  0871               	movf	___lwmod@divisor+1,w
  6321  0CAA  1C03               	skipc
  6322  0CAB  03F3               	decf	___lwmod@dividend+1,f
  6323  0CAC  02F3               	subwf	___lwmod@dividend+1,f
  6324  0CAD                     i1l2596:	
  6325  0CAD  3001               	movlw	1
  6326  0CAE                     u190_25:	
  6327  0CAE  1003               	clrc
  6328  0CAF  0CF1               	rrf	___lwmod@divisor+1,f
  6329  0CB0  0CF0               	rrf	___lwmod@divisor,f
  6330  0CB1  3EFF               	addlw	-1
  6331  0CB2  1D03               	skipz
  6332  0CB3  2CAE               	goto	u190_25
  6333  0CB4  3001               	movlw	1
  6334  0CB5  02F5               	subwf	___lwmod@counter,f
  6335  0CB6  1D03               	btfss	3,2
  6336  0CB7  2C9F               	goto	i1l2592
  6337  0CB8                     i1l2600:	
  6338  0CB8  0873               	movf	___lwmod@dividend+1,w
  6339  0CB9  01F1               	clrf	?___lwmod+1
  6340  0CBA  07F1               	addwf	?___lwmod+1,f
  6341  0CBB  0872               	movf	___lwmod@dividend,w
  6342  0CBC  01F0               	clrf	?___lwmod
  6343  0CBD  07F0               	addwf	?___lwmod,f
  6344  0CBE  0008               	return
  6345  0CBF                     __end_of___lwmod:	
  6346                           
  6347                           	psect	text40
  6348  0CBF                     __ptext40:	
  6349 ;; *************** function ___lwdiv *****************
  6350 ;; Defined at:
  6351 ;;		line 5 in file "C:\Program Files (x86)\Microchip\xc8\v1.21\sources\pic\lwdiv.c"
  6352 ;; Parameters:    Size  Location     Type
  6353 ;;  divisor         2    0[COMMON] unsigned int 
  6354 ;;  dividend        2    2[COMMON] unsigned int 
  6355 ;; Auto vars:     Size  Location     Type
  6356 ;;  quotient        2    5[COMMON] unsigned int 
  6357 ;;  counter         1    7[COMMON] unsigned char 
  6358 ;; Return value:  Size  Location     Type
  6359 ;;                  2    0[COMMON] unsigned int 
  6360 ;; Registers used:
  6361 ;;		wreg, status,2, status,0
  6362 ;; Tracked objects:
  6363 ;;		On entry : 0/0
  6364 ;;		On exit  : 0/0
  6365 ;;		Unchanged: 0/0
  6366 ;; Data sizes:     COMMON   BANK0   BANK1   BANK3   BANK2
  6367 ;;      Params:         4       0       0       0       0
  6368 ;;      Locals:         3       0       0       0       0
  6369 ;;      Temps:          1       0       0       0       0
  6370 ;;      Totals:         8       0       0       0       0
  6371 ;;Total ram usage:        8 bytes
  6372 ;; Hardware stack levels used:    1
  6373 ;; This function calls:
  6374 ;;		Nothing
  6375 ;; This function is called by:
  6376 ;;		_utoa
  6377 ;; This function uses a non-reentrant model
  6378 ;;
  6379                           
  6380                           
  6381                           ;psect for function ___lwdiv
  6382  0CBF                     ___lwdiv:	
  6383                           
  6384                           ;incstack = 0
  6385                           ; Regs used in ___lwdiv: [wreg+status,2+status,0]
  6386  0CBF  01F5               	clrf	___lwdiv@quotient
  6387  0CC0  01F6               	clrf	___lwdiv@quotient+1
  6388  0CC1  0871               	movf	___lwdiv@divisor+1,w
  6389  0CC2  0470               	iorwf	___lwdiv@divisor,w
  6390  0CC3  1903               	skipnz
  6391  0CC4  2CF6               	goto	i1l2578
  6392  0CC5  01F7               	clrf	___lwdiv@counter
  6393  0CC6  0AF7               	incf	___lwdiv@counter,f
  6394  0CC7                     i1l2566:	
  6395  0CC7  1BF1               	btfsc	___lwdiv@divisor+1,7
  6396  0CC8  2CD5               	goto	i1l2568
  6397  0CC9  3001               	movlw	1
  6398  0CCA                     u180_25:	
  6399  0CCA  1003               	clrc
  6400  0CCB  0DF0               	rlf	___lwdiv@divisor,f
  6401  0CCC  0DF1               	rlf	___lwdiv@divisor+1,f
  6402  0CCD  3EFF               	addlw	-1
  6403  0CCE  1D03               	skipz
  6404  0CCF  2CCA               	goto	u180_25
  6405  0CD0  3001               	movlw	1
  6406  0CD1  00F4               	movwf	??___lwdiv
  6407  0CD2  0874               	movf	??___lwdiv,w
  6408  0CD3  07F7               	addwf	___lwdiv@counter,f
  6409  0CD4  2CC7               	goto	i1l2566
  6410  0CD5                     i1l2568:	
  6411  0CD5  3001               	movlw	1
  6412  0CD6                     u182_25:	
  6413  0CD6  1003               	clrc
  6414  0CD7  0DF5               	rlf	___lwdiv@quotient,f
  6415  0CD8  0DF6               	rlf	___lwdiv@quotient+1,f
  6416  0CD9  3EFF               	addlw	-1
  6417  0CDA  1D03               	skipz
  6418  0CDB  2CD6               	goto	u182_25
  6419  0CDC  0871               	movf	___lwdiv@divisor+1,w
  6420  0CDD  0273               	subwf	___lwdiv@dividend+1,w
  6421  0CDE  1D03               	skipz
  6422  0CDF  2CE2               	goto	u183_25
  6423  0CE0  0870               	movf	___lwdiv@divisor,w
  6424  0CE1  0272               	subwf	___lwdiv@dividend,w
  6425  0CE2                     u183_25:	
  6426  0CE2  1C03               	skipc
  6427  0CE3  2CEB               	goto	i1l2574
  6428  0CE4  0870               	movf	___lwdiv@divisor,w
  6429  0CE5  02F2               	subwf	___lwdiv@dividend,f
  6430  0CE6  0871               	movf	___lwdiv@divisor+1,w
  6431  0CE7  1C03               	skipc
  6432  0CE8  03F3               	decf	___lwdiv@dividend+1,f
  6433  0CE9  02F3               	subwf	___lwdiv@dividend+1,f
  6434  0CEA  1475               	bsf	___lwdiv@quotient,0
  6435  0CEB                     i1l2574:	
  6436  0CEB  3001               	movlw	1
  6437  0CEC                     u184_25:	
  6438  0CEC  1003               	clrc
  6439  0CED  0CF1               	rrf	___lwdiv@divisor+1,f
  6440  0CEE  0CF0               	rrf	___lwdiv@divisor,f
  6441  0CEF  3EFF               	addlw	-1
  6442  0CF0  1D03               	skipz
  6443  0CF1  2CEC               	goto	u184_25
  6444  0CF2  3001               	movlw	1
  6445  0CF3  02F7               	subwf	___lwdiv@counter,f
  6446  0CF4  1D03               	btfss	3,2
  6447  0CF5  2CD5               	goto	i1l2568
  6448  0CF6                     i1l2578:	
  6449  0CF6  0876               	movf	___lwdiv@quotient+1,w
  6450  0CF7  01F1               	clrf	?___lwdiv+1
  6451  0CF8  07F1               	addwf	?___lwdiv+1,f
  6452  0CF9  0875               	movf	___lwdiv@quotient,w
  6453  0CFA  01F0               	clrf	?___lwdiv
  6454  0CFB  07F0               	addwf	?___lwdiv,f
  6455  0CFC  0008               	return
  6456  0CFD                     __end_of___lwdiv:	
  6457  007E                     btemp	set	126	;btemp
  6458  007E                     wtemp0	set	126


Data Sizes:
    Strings     2
    Constant    10
    Data        10
    BSS         0
    Persistent  0
    Stack       0

Auto Spaces:
    Space          Size  Autos    Used
    COMMON           14     14      14
    BANK0            80     54      64
    BANK1            80      3       3
    BANK3            96      0       0
    BANK2            96      0       0

Pointer List with Targets:

    ?___lwmod	unsigned int  size(1) Largest target is 0

    ?___lwdiv	unsigned int  size(1) Largest target is 0

    ?___ftpack	float  size(1) Largest target is 0

    ?_calculate_frequency	long  size(1) Largest target is 0

    ?___lltoft	float  size(1) Largest target is 0

    ?___ftdiv	float  size(1) Largest target is 0

    ?___awtoft	float  size(1) Largest target is 0

    ?_ReadADC	int  size(1) Largest target is 0

    ?_ReadVoltage	float  size(1) Largest target is 0

    ?___lldiv	unsigned long  size(1) Largest target is 0

    ?___llmod	unsigned long  size(1) Largest target is 0

    ?___ftadd	float  size(1) Largest target is 0

    ?___ftneg	float  size(1) Largest target is 0

    ?___lwtoft	float  size(1) Largest target is 0

    ?_strlen	unsigned int  size(1) Largest target is 10
		 -> ISR@buffer(BANK0[10]), 

    ?___wmul	unsigned int  size(1) Largest target is 0

    ?___ftmul	float  size(1) Largest target is 0

    ?_utoa	PTR unsigned char  size(1) Largest target is 10
		 -> ISR@buffer(BANK0[10]), 

    ?___fttol	long  size(1) Largest target is 4
		 -> calculate_frequency@frequency(BANK0[4]), 

    strlen@s	PTR const unsigned char  size(1) Largest target is 10
		 -> ISR@buffer(BANK0[10]), 

    strlen@cp	PTR const unsigned char  size(1) Largest target is 10
		 -> ISR@buffer(BANK0[10]), 

    utoa@buf	PTR unsigned char  size(1) Largest target is 10
		 -> ISR@buffer(BANK0[10]), 

    sp__itoa	PTR unsigned char  size(1) Largest target is 0

    write_str@str	PTR const unsigned char  size(2) Largest target is 10
		 -> STR_1(CODE[2]), ISR@buffer(BANK0[10]), 

    freq_to_string@buf	PTR unsigned char  size(1) Largest target is 10
		 -> ISR@buffer(BANK0[10]), 

    sp__utoa	PTR unsigned char  size(1) Largest target is 10
		 -> ISR@buffer(BANK0[10]), 

    FloatToString@str	PTR unsigned char  size(1) Largest target is 10
		 -> ISR@buffer(BANK0[10]), 


Critical Paths under _main in COMMON

    None.

Critical Paths under _ISR in COMMON

    i1_set_cur_l_1->i1_toggle
    _calculate_frequency->___fttol
    _calculate_frequency->___lltoft
    ___lltoft->___ftpack
    _set_underline->i1_toggle
    _write_str->_write_char
    _write_char->i1_toggle
    _ReadVoltage->___awtoft
    _ReadVoltage->___ftdiv
    ___ftdiv->___ftpack
    ___awtoft->___ftpack
    _set_cur->i1_toggle
    _freq_to_string->___lldiv
    _FloatToString->___fttol
    _FloatToString->___lwtoft
    ___lwtoft->___ftneg
    ___ftneg->___ftpack
    ___ftmul->___lltoft
    ___ftadd->___awtoft
    ___ftadd->___lwtoft
    _utoa->___lwdiv

Critical Paths under _main in BANK0

    None.

Critical Paths under _ISR in BANK0

    _ISR->_FloatToString
    _ISR->_update_dds
    _update_dds->_load_freq
    _calculate_frequency->___ftmul
    _load_freq->_calculate_frequency
    _ReadVoltage->___ftmul
    _FloatToString->_ReadVoltage
    ___ftadd->___lwtoft

Critical Paths under _main in BANK1

    _DDS_init->_dataUpdate
    _init_lcd->_toggle
    _set_cur_l_1->_toggle

Critical Paths under _ISR in BANK1

    None.

Critical Paths under _main in BANK3

    None.

Critical Paths under _ISR in BANK3

    None.

Critical Paths under _main in BANK2

    None.

Critical Paths under _ISR in BANK2

    None.

Call Graph Tables:

 ---------------------------------------------------------------------------------
 (Depth) Function   	        Calls       Base Space   Used Autos Params    Refs
 ---------------------------------------------------------------------------------
 (0) _main                                                 0     0      0      22
                        _set_cur_l_1
                          _TMR0_init
                            _ADCInit
                           _init_lcd
                           _DDS_init
 ---------------------------------------------------------------------------------
 (1) _DDS_init                                             0     0      0      22
                         _dataUpdate
 ---------------------------------------------------------------------------------
 (2) _dataUpdate                                           3     1      2      22
                                              0 BANK1      3     1      2
 ---------------------------------------------------------------------------------
 (1) _init_lcd                                             0     0      0       0
                             _toggle
 ---------------------------------------------------------------------------------
 (1) _ADCInit                                              0     0      0       0
 ---------------------------------------------------------------------------------
 (1) _TMR0_init                                            0     0      0       0
 ---------------------------------------------------------------------------------
 (1) _set_cur_l_1                                          0     0      0       0
                             _toggle
 ---------------------------------------------------------------------------------
 (2) _toggle                                               2     2      0       0
                                              0 BANK1      2     2      0
 ---------------------------------------------------------------------------------
 Estimated maximum stack depth 2
 ---------------------------------------------------------------------------------
 (Depth) Function   	        Calls       Base Space   Used Autos Params    Refs
 ---------------------------------------------------------------------------------
 (3) _ISR                                                 17    17      0    8431
                                             37 BANK0     17    17      0
                      _FloatToString
                     _freq_to_string
                            _set_cur
                        _ReadVoltage
                          _write_str
                      _set_underline
                         _update_dds
                      i1_set_cur_l_1
 ---------------------------------------------------------------------------------
 (4) i1_set_cur_l_1                                        0     0      0       0
                           i1_toggle
 ---------------------------------------------------------------------------------
 (4) _update_dds                                           4     0      4    1369
                                             33 BANK0      4     0      4
                    _frequencyUpdate
                          _load_freq
                _calculate_frequency
                       i1_dataUpdate
 ---------------------------------------------------------------------------------
 (5) _calculate_frequency                                  7     3      4    1110
                                             16 BANK0      7     3      4
                            ___ftmul
                            ___fttol
                           ___lltoft
 ---------------------------------------------------------------------------------
 (6) ___lltoft                                             6     2      4     278
                                              8 COMMON     6     2      4
                           ___ftpack
 ---------------------------------------------------------------------------------
 (5) _load_freq                                           10     6      4     164
                                             23 BANK0     10     6      4
                _calculate_frequency (ARG)
                       i1_dataUpdate
 ---------------------------------------------------------------------------------
 (5) i1_dataUpdate                                         3     1      2      73
                                              0 COMMON     3     1      2
 ---------------------------------------------------------------------------------
 (5) _frequencyUpdate                                      0     0      0       0
 ---------------------------------------------------------------------------------
 (4) _set_underline                                        3     3      0      22
                                              2 COMMON     3     3      0
                           i1_toggle
 ---------------------------------------------------------------------------------
 (4) _write_str                                            7     3      4     201
                                              3 COMMON     7     3      4
                         _write_char
 ---------------------------------------------------------------------------------
 (5) _write_char                                           1     1      0      22
                                              2 COMMON     1     1      0
                           i1_toggle
 ---------------------------------------------------------------------------------
 (4) _ReadVoltage                                          7     4      3    2621
                                             16 BANK0      7     4      3
                            _ReadADC
                           ___awtoft
                            ___ftadd
                            ___ftdiv
                            ___ftmul
 ---------------------------------------------------------------------------------
 (5) ___ftdiv                                             16    10      6     489
                                              8 COMMON     6     0      6
                                              0 BANK0     10    10      0
                           ___ftpack
 ---------------------------------------------------------------------------------
 (5) ___awtoft                                             6     3      3     300
                                              8 COMMON     6     3      3
                            _ReadADC (ARG)
                           ___ftpack
 ---------------------------------------------------------------------------------
 (5) _ReadADC                                              3     1      2      44
                                              0 COMMON     3     1      2
 ---------------------------------------------------------------------------------
 (4) _set_cur                                              1     1      0      22
                                              2 COMMON     1     1      0
                           i1_toggle
 ---------------------------------------------------------------------------------
 (5) i1_toggle                                             2     2      0       0
                                              0 COMMON     2     2      0
 ---------------------------------------------------------------------------------
 (4) _freq_to_string                                       9     5      4     522
                                              0 BANK0      9     5      4
                            ___lldiv
                            ___llmod
 ---------------------------------------------------------------------------------
 (5) ___llmod                                             10     2      8     159
                                              0 COMMON    10     2      8
 ---------------------------------------------------------------------------------
 (5) ___lldiv                                             14     6      8     162
                                              0 COMMON    14     6      8
 ---------------------------------------------------------------------------------
 (4) _FloatToString                                       14    10      4    3527
                                             23 BANK0     14    10      4
                               _utoa
                             _strlen
                        _ReadVoltage (ARG)
                            ___ftadd
                             ___ftge
                            ___ftmul
                            ___ftneg
                            ___fttol
                           ___lwtoft
                             ___wmul
 ---------------------------------------------------------------------------------
 (5) ___wmul                                               6     2      4      92
                                              0 COMMON     6     2      4
 ---------------------------------------------------------------------------------
 (5) ___lwtoft                                             4     1      3     231
                                             11 COMMON     3     0      3
                                              0 BANK0      1     1      0
                           ___ftpack
                            ___ftneg (ARG)
 ---------------------------------------------------------------------------------
 (6) ___fttol                                             14    10      4     252
                                              0 COMMON    14    10      4
 ---------------------------------------------------------------------------------
 (5) ___ftneg                                              3     0      3      45
                                              8 COMMON     3     0      3
                           ___ftpack (ARG)
 ---------------------------------------------------------------------------------
 (6) ___ftmul                                             16    10      6     535
                                              0 BANK0     16    10      6
                           ___ftpack
                           ___lltoft (ARG)
 ---------------------------------------------------------------------------------
 (7) ___ftpack                                             8     3      5     209
                                              0 COMMON     8     3      5
 ---------------------------------------------------------------------------------
 (5) ___ftge                                              12     6      6     136
                                              0 COMMON    12     6      6
 ---------------------------------------------------------------------------------
 (5) ___ftadd                                             13     7      6    1049
                                              1 BANK0     13     7      6
                            _ReadADC (ARG)
                           ___ftpack
                           ___awtoft (ARG)
                            ___ftneg (ARG)
                           ___lwtoft (ARG)
 ---------------------------------------------------------------------------------
 (5) _strlen                                               8     6      2      90
                                              0 COMMON     8     6      2
 ---------------------------------------------------------------------------------
 (5) _utoa                                                 9     5      4     623
                                              8 COMMON     5     1      4
                                              0 BANK0      4     4      0
                            ___lwdiv
                            ___lwmod
 ---------------------------------------------------------------------------------
 (6) ___lwmod                                              6     2      4     159
                                              0 COMMON     6     2      4
 ---------------------------------------------------------------------------------
 (6) ___lwdiv                                              8     4      4     162
                                              0 COMMON     8     4      4
 ---------------------------------------------------------------------------------
 Estimated maximum stack depth 7
 ---------------------------------------------------------------------------------

 Call Graph Graphs:

 _main (ROOT)
   _set_cur_l_1
     _toggle
   _TMR0_init
   _ADCInit
   _init_lcd
     _toggle
   _DDS_init
     _dataUpdate

 _ISR (ROOT)
   _FloatToString
     _utoa
       ___lwdiv
       ___lwmod
     _strlen
     _ReadVoltage (ARG)
       _ReadADC
       ___awtoft
         _ReadADC (ARG)
         ___ftpack (ARG)
       ___ftadd
         _ReadADC (ARG)
         ___ftpack (ARG)
         ___awtoft (ARG)
           _ReadADC (ARG)
           ___ftpack (ARG)
         ___ftneg (ARG)
           ___ftpack (ARG)
         ___lwtoft (ARG)
           ___ftpack
           ___ftneg (ARG)
             ___ftpack (ARG)
       ___ftdiv
         ___ftpack
       ___ftmul
         ___ftpack
         ___lltoft (ARG)
           ___ftpack
     ___ftadd (ARG)
       _ReadADC (ARG)
       ___ftpack (ARG)
       ___awtoft (ARG)
         _ReadADC (ARG)
         ___ftpack (ARG)
       ___ftneg (ARG)
         ___ftpack (ARG)
       ___lwtoft (ARG)
         ___ftpack
         ___ftneg (ARG)
           ___ftpack (ARG)
     ___ftge (ARG)
     ___ftmul (ARG)
       ___ftpack
       ___lltoft (ARG)
         ___ftpack
     ___ftneg (ARG)
       ___ftpack (ARG)
     ___fttol (ARG)
     ___lwtoft (ARG)
       ___ftpack
       ___ftneg (ARG)
         ___ftpack (ARG)
     ___wmul (ARG)
   _freq_to_string
     ___lldiv
     ___llmod
   _set_cur
     i1_toggle
   _ReadVoltage
     _ReadADC
     ___awtoft
       _ReadADC (ARG)
       ___ftpack (ARG)
     ___ftadd
       _ReadADC (ARG)
       ___ftpack (ARG)
       ___awtoft (ARG)
         _ReadADC (ARG)
         ___ftpack (ARG)
       ___ftneg (ARG)
         ___ftpack (ARG)
       ___lwtoft (ARG)
         ___ftpack
         ___ftneg (ARG)
           ___ftpack (ARG)
     ___ftdiv
       ___ftpack
     ___ftmul
       ___ftpack
       ___lltoft (ARG)
         ___ftpack
   _write_str
     _write_char
       i1_toggle
   _set_underline
     i1_toggle
   _update_dds
     _frequencyUpdate
     _load_freq
       _calculate_frequency (ARG)
         ___ftmul
           ___ftpack
           ___lltoft (ARG)
             ___ftpack
         ___fttol
         ___lltoft
           ___ftpack
       i1_dataUpdate (ARG)
     _calculate_frequency
       ___ftmul
         ___ftpack
         ___lltoft (ARG)
           ___ftpack
       ___fttol
       ___lltoft
         ___ftpack
     i1_dataUpdate
   i1_set_cur_l_1
     i1_toggle

 Address spaces:
Name               Size   Autos  Total    Cost      Usage
BANK3               60      0       0       9        0.0%
BITBANK3            60      0       0       8        0.0%
SFR3                 0      0       0       4        0.0%
BITSFR3              0      0       0       4        0.0%
BANK2               60      0       0      11        0.0%
BITBANK2            60      0       0      10        0.0%
SFR2                 0      0       0       5        0.0%
BITSFR2              0      0       0       5        0.0%
BANK1               50      3       3       7        3.8%
BITBANK1            50      0       0       6        0.0%
SFR1                 0      0       0       2        0.0%
BITSFR1              0      0       0       2        0.0%
BANK0               50     36      40       5       80.0%
BITBANK0            50      0       0       4        0.0%
SFR0                 0      0       0       1        0.0%
BITSFR0              0      0       0       1        0.0%
COMMON               E      E       E       1      100.0%
BITCOMMON            E      0       0       0        0.0%
CODE                 0      0       0       0        0.0%
DATA                 0      0      5D      12        0.0%
ABS                  0      0      51       3        0.0%
NULL                 0      0       0       0        0.0%
STACK                0      0       C       2        0.0%
EEDATA             100      0       0       0        0.0%


Microchip Technology PIC Macro Assembler V1.21 build 54009 
Symbol Table                                                                                   Thu Apr 30 06:51:10 2015

                           pc 0002                   __CFG_CP$OFF 0000                            l92 0B70  
                 __CFG_CPD$ON 0000                            fsr 0004           ___wmul@multiplicand 0072  
                ___ftadd@exp1 002D                  ___ftadd@exp2 002C                  ___ftadd@sign 002B  
                         _RB0 0030                           _RB1 0031                           _RB2 0032  
                         _RB3 0033                           _RB4 0034                           _RB5 0035  
                         _RB6 0036                           _RB7 0037                           _ISR 0025  
                         fsr0 0004               __end_of_ADCInit 0B19                           indf 0000  
                __CFG_FOSC$HS 0000         __size_ofi1_dataUpdate 001D                  __CFG_LVP$OFF 0000  
             ??_FloatToString 003B                          ?_ISR 0070                  ___ftdiv@cntr 0024  
                ___ftdiv@sign 0029                          l2408 0B9F                          STR_1 081A  
     __end_of_frequencyUpdate 0A94                          u1380 0B9C                          u2717 0BA3  
                        u2727 0BB1                          u2737 0AFE                          i1l86 01D3  
                        _TMR0 0001                  __CFG_WRT$OFF 0000                          _main 0B50  
                        _freq 0056                  ___ftpack@arg 0070                  ___ftpack@exp 0073  
                        _step 005A                          btemp 007E                          _utoa 06F5  
               __CFG_BOREN$ON 0000                          start 0012                  ___ftmul@cntr 002E  
                ___ftmul@sign 002F               __end_of_ReadADC 0C59            FloatToString@value 0043  
                       ??_ISR 0045              __end_of_DDS_init 0E71                  ___fttol@exp1 007D  
                ___fttol@lval 0079                  i1_dataUpdate 07E2                 ??_ReadVoltage 0033  
                       ?_main 0070               __end_of___ftadd 03F3                 __CFG_WDTE$OFF 0000  
             __end_of___ftdiv 0669               __end_of___ftneg 0A9C               __end_of___lldiv 0F2C  
                       ?_utoa 0078               __end_of___ftmul 05B3               __end_of___llmod 0DC5  
             __end_of___fttol 06F5               __end_of___lwdiv 0CFD                         i1l158 0C4E  
                       i1l432 0F7B               __end_of___lwmod 0CBF                         i1l426 0F62  
                       i1l455 0392                         i1l529 075D                         i1l652 0B7B  
                       _PORTC 0007                         _TRISC 0087                 __CFG_PWRTE$ON 0000  
                ___lltoft@exp 007D                 ___awtoft@sign 007D            __size_of_TMR0_init 0008  
               ___ftpack@sign 0074                         pclath 000A               __end_of_set_cur 0AC0  
                       utoa@c 0022                         utoa@v 0020                         status 0003  
                       wtemp0 007E              __end_ofi1_toggle 0AE4               __initialization 0015  
                __end_of_main 0B71                  __end_of_utoa 0773                     ??_ADCInit 00A0  
     __size_of_freq_to_string 006C          ReadVoltage@adc_value 0034                        ??_main 00A3  
               ___fttol@sign1 0078                        ??_utoa 007C  __size_of_calculate_frequency 003E  
         __end_of_ReadVoltage 04E0              ___llmod@dividend 0074                        _ADRESH 001E  
                      _ADRESL 009E              __end_of___awtoft 0B50              __end_of___ftpack 0F94  
            __end_of___lltoft 0C2D                        i1l3002 0E0A                        i1l2320 0BE1  
                      i1l3040 006E                        i1l2322 0BEC                        i1l2500 06D0  
            ?_frequencyUpdate 0070                        i1l2430 0F4C                        i1l2422 0F34  
                      i1l2502 06DB                        i1l3054 00D4                        i1l2600 0CB8  
                      i1l2504 06DE                        i1l2520 0EEE                        i1l3080 0161  
                      i1l3072 0139                        i1l2426 0F3B                        i1l3082 016B  
                      i1l3074 0143                        i1l3090 01C6                        i1l2452 0E98  
                      i1l2436 0F67                        i1l2428 0F47                        i1l2508 06EC  
                      i1l2532 0F23                        i1l3420 01B1                        i1l3084 0175  
                      i1l3076 014D                        i1l3068 0134                        i1l2438 0F71  
                      i1l2606 0B73                        i1l2518 0EDE                        i1l2542 0D81  
                      i1l3430 01AC                        i1l3422 01BB                        i1l3086 0175  
                      i1l3078 0157                        i1l2720 036D                        i1l2456 0EBF  
                      i1l2528 0F16                        i1l2544 0D91                        i1l2552 0DBC  
                      i1l3432 01B6                        i1l3424 0192                        i1l3416 0187  
                      i1l3088 0182                        i1l2618 06FE                        i1l2714 0358  
                      i1l2474 0681                        i1l3418 01A7                        i1l3426 019D  
                      i1l2628 0725                        i1l2732 03A4                        i1l2716 0364  
                      i1l2708 0343                        i1l2820 055D                        i1l2804 050E  
                      i1l2492 06B3                        i1l2548 0DAF                        i1l2652 0FA7  
                      i1l2660 0F9B                        i1l3428 01A2                        u202_25 0C36  
                      i1l2574 0CEB                        i1l2566 0CC7                        i1l2590 0C91  
                      i1l2726 0382                        i1l2718 0369                        i1l2494 06C3  
                      i1l2654 0FB2                        i1l2568 0CD5                        i1l2592 0C9F  
                      i1l2736 03B6                        i1l2728 038E                        i1l2832 0585  
                      i1l2816 054D                        i1l2578 0CF6                        i1l2746 03D9  
                      i1l2690 031A                        i1l2658 0FF9                        i1l2762 05E1  
                      i1l2596 0CAD                        i1l2828 0575                        i1l2668 0C3B  
                      i1l2756 05CB                        i1l2686 0313                        i1l2950 024E  
                      i1l2926 0B39                        i1l2854 0C06                        i1l2696 0329  
                      i1l2784 0645                        i1l2776 0626                        i1l2856 0C18  
                      i1l2868 07EB                        i1l2798 04F8                        i1l2994 0DC7  
                      u213_25 0344                        i1l2998 0DFE                        u222_25 0383  
                      u142_25 0F40                        u230_25 05F3                        u231_25 0605  
                      u152_21 0E8B                        u152_22 0E8C                        u152_23 0E91  
                      u152_24 0E92                        u216_25 0359                        u144_25 0F5B  
                      u160_25 06B4                        u232_25 0627                        _INTCON 000B  
                      u233_25 0638                        u154_21 0EB2                        u154_22 0EB3  
                      u154_23 0EB8                        u154_24 0EB9                        u146_25 0F6A  
                      u242_25 055E                        u170_25 0F05                        u234_25 0646  
                      u219_25 036E                        u243_25 0566                        u163_25 06D2  
                      u171_25 0F17                        u251_25 0C0B                        u180_25 0CCA  
                      u260_25 0282                        u253_20 07E8                        u149_25 0F82  
                      u157_25 0688                        u261_25 0DD1                        u182_25 0CD6  
                      u190_25 0CAE                        u238_25 051A                        u174_25 0D85  
                      u183_25 0CE2                        u247_25 0586                        u239_25 052C  
                      u167_25 0EE2                        u263_25 0E14                        u255_25 0D0A  
                      u184_25 0CEC                        u248_25 058E                        u176_25 0D9F  
                      u256_25 0D24                        u280_27 0415                        u193_25 0B7C  
                      u169_25 0EF0                        u177_25 0DB0                        u281_27 044F  
            __end_of___lwtoft 0B2F                        u194_25 0B83                        u266_25 0080  
                      u282_27 0489                        u274_27 00CD                        u187_25 0C94  
                      u283_27 0C49                        u275_27 012D                        u284_27 0ADB  
                      u276_27 01CC                        u189_25 0CA5                        u269_25 00E6  
                      u277_27 07ED                        u278_27 07F9                        u279_27 0BCF  
                      _TRISB0 0430                        _TRISB1 0431                        _TRISB2 0432  
                      _TRISB3 0433                        _TRISB4 0434                        _TRISB5 0435  
                      _TRISB6 0436                        _TRISB7 0437                     ??_ReadADC 0072  
                ?_set_cur_l_1 0070                        ___ftge 0E71                        ___wmul 0B71  
                   ??___ftadd 0027                     ??___ftdiv 0020                     ??___ftneg 007B  
                   ??___lldiv 0078                     ??___ftmul 0026             __end_of_TMR0_init 0AA4  
                   ??___llmod 0078                     ??___fttol 0074                     ??___lwdiv 0074  
                   ??___lwmod 0074              __end_of_init_lcd 0C8B                        _toggle 0AF5  
                      _strlen 0BDC         ___ftmul@f3_as_product 002B                        saved_w 007E  
                   ??_set_cur 0072                     ?_DDS_init 0070       __end_of__initialization 0021  
                  ___ftadd@f1 0021                    ___ftadd@f2 0024                    ___ftge@ff1 0070  
                  ___ftge@ff2 0073                    ___ftdiv@f1 007B                    ___ftdiv@f2 0078  
                  ___ftdiv@f3 0025                    ___ftneg@f1 0078                    ___awtoft@c 0078  
                  ___ftmul@f1 0020                    ___ftmul@f2 0023                    ___fttol@f1 0070  
              __pcstackCOMMON 0070                  __pidataBANK0 0ACA                    ___lltoft@c 0078  
                  ___lwtoft@c 007B                   _ReadVoltage 03F3                 dataUpdate@sig 00A0  
                   ?i1_toggle 0070                 _current_digit 005E         __end_of_set_underline 0BDC  
                  _dataUpdate 0B94                    ??_DDS_init 00A3                     ISR@buffer 004C  
             write_str@length 0075            __size_of_load_freq 003E                    __pmaintext 0B50  
                     ?___ftge 0070           freq_to_string@digit 0810                       ?___wmul 0070  
                  __pintentry 0004                _freq_to_string 0F94                       _ADCInit 0B07  
                   ?___awtoft 0078                     ?___ftpack 0070                       ?_toggle 0070  
                   ?___lltoft 0078                       ?_strlen 0070                     ?___lwtoft 007B  
                  ??i1_toggle 0070        __size_ofi1_set_cur_l_1 0009                    __stringtab 0800  
       __end_of_FloatToString 02EA                     ?_init_lcd 0070                       _ReadADC 0C2D  
         _calculate_frequency 0D3B            __size_of_write_str 0052        __end_of_freq_to_string 1000  
             __size_of___ftge 005D          __size_of_set_cur_l_1 0009                       ___ftadd 02EA  
                     ___ftdiv 05B3                       ___ftneg 0A94                       ___lldiv 0ECE  
             __size_of___wmul 0023                       ___ftmul 04E0                       ___llmod 0D79  
                     ___fttol 0669                       ___lwdiv 0CBF                       ___lwmod 0C8B  
                  ??___awtoft 007B                    ??___ftpack 0075                    ??___lltoft 007C  
                     __ptext1 0E17                       __ptext2 0B94                       __ptext3 0C59  
                     __ptext4 0B07                       __ptext5 0A9C                       __ptext6 0AAD  
                     __ptext7 0AF5                       __ptext8 0025                       __ptext9 0AA4  
             __size_of_toggle 0012                    ??___lwtoft 0020               __size_of_strlen 0026  
                __size_of_ISR 01BB             __end_of_load_freq 0D3B          ?_calculate_frequency 0030  
                     _set_cur 0AB6          end_of_initialization 0021               i1dataUpdate@sig 0070  
                 ?_dataUpdate 00A0                    ??_init_lcd 00A2               freq_to_string@i 0027  
             ___lldiv@divisor 0070               ___lldiv@counter 007D                 i1_set_cur_l_1 0AA4  
             ?_freq_to_string 0020                       utoa@buf 0023                       utoa@val 0078  
                     strlen@s 0076                     _TMR0_init 0A9C         ??_calculate_frequency 007E  
           __end_of_write_str 0E17                    _update_dds 0773                     ReadADC@ch 0070  
                 ___ftdiv@exp 0028             __size_of_DDS_init 005A                ?i1_set_cur_l_1 0070  
    __size_of_frequencyUpdate 0005                   ___ftmul@exp 002A             FloatToString@curr 003F  
           FloatToString@size 003A                  write_str@str 0073                __end_of___ftge 0ECE  
              __end_of___wmul 0B94                    _write_char 0AC0           __size_of_dataUpdate 0023  
                ?_ReadVoltage 0030                    ?_TMR0_init 0070                __end_of_toggle 0B07  
              __end_of_strlen 0C02           start_initialization 0015                   __end_of_ISR 01E0  
               ReadVoltage@ch 0030        calculate_frequency@tmp 0034             __size_ofi1_toggle 0010  
             ___llmod@divisor 0070               ___llmod@counter 0079                    load_freq@i 003F  
                    ??___ftge 0076                      ??___wmul 0074                    init_fetch0 0AE4  
                 __pdataBANK0 0056                      ?_ADCInit 0070                 ?i1_dataUpdate 0070  
                    ??_toggle 00A0                      ??_strlen 0072           set_underline@offset 0074  
           __size_of___awtoft 0021             __size_of___ftpack 0068             __size_of___lltoft 002B  
           __size_of___lwtoft 0016                 __pcstackBANK0 0020                 __pcstackBANK1 00A0  
                 ?_update_dds 0041           __end_of__stringdata 081C                      ?_ReadADC 0070  
             ??i1_set_cur_l_1 0072             __size_of_init_lcd 0032              ___lwdiv@dividend 0072  
                    ?___ftadd 0021                      ?___ftdiv 0078                      ?___ftneg 0078  
                    ?___lldiv 0070                      ?___ftmul 0020                      ?___llmod 0070  
                    ?___fttol 0070                      ?___lwdiv 0070                      ?___lwmod 0070  
              ??i1_dataUpdate 0072                   ?_write_char 0070             ??_frequencyUpdate 0070  
                   __pstrings 0800        __size_of_set_underline 0025                   ??_TMR0_init 00A0  
                    ?_set_cur 0070                 set_cur@offset 0072                     _load_freq 0CFD  
            ___lwdiv@quotient 0075                  ??_dataUpdate 00A2                      _DDS_init 0E17  
           interrupt_function 0004                ___wmul@product 0074              ??_freq_to_string 0024  
               ??_set_cur_l_1 00A2           update_dds@frequency 0041           __size_of_update_dds 006F  
calculate_frequency@frequency 0030        __size_of_FloatToString 010A              __size_of_ADCInit 0012  
 __end_offreq_to_string@digit 081A                    _ADCON0bits 001F                   __stringbase 080F  
                  _ADCON1bits 009F                   __stringdata 081A             ___wmul@multiplier 0070  
          __end_of_dataUpdate 0BB7                   write_char@c 0072          __size_of_ReadVoltage 00ED  
                    i1_toggle 0AD4              FloatToString@len 0040              FloatToString@pos 0042  
            FloatToString@str 0041                    ?_load_freq 0037                     _write_str 0DC5  
               _set_underline 0BB7           __size_of_write_char 000A              __size_of_ReadADC 002C  
               load_freq@freq 0037   __end_of_calculate_frequency 0D79              __size_of___ftadd 0109  
            __size_of___ftdiv 00B6              __size_of___ftneg 0008              __size_of___lldiv 005E  
            __size_of___ftmul 00D3              __size_of___llmod 004C              __size_of___fttol 008C  
         __end_of_set_cur_l_1 0AB6              __size_of___lwdiv 003E              __size_of___lwmod 0034  
                    ___awtoft 0B2F                      ___ftpack 0F2C            __end_of__stringtab 0810  
                    ___lltoft 0C02                      ___lwtoft 0B19               ___lwdiv@divisor 0070  
           freq_to_string@buf 0026             freq_to_string@val 0020               ___lwdiv@counter 0077  
                    __ptext10 0773                      __ptext11 0D3B                      __ptext20 05B3  
                    __ptext12 0C02                      __ptext21 0B2F                      __ptext13 0CFD  
                    __ptext30 0B19                      __ptext22 0C2D                      __ptext14 07E2  
                    __ptext31 0669                      __ptext23 0AB6                      __ptext15 0A8F  
                    __ptext40 0CBF                      __ptext32 0A94                      __ptext24 0AD4  
                    __ptext16 0BB7                      __ptext33 04E0                      __ptext25 0F94  
                    __ptext17 0DC5                      __ptext34 0F2C                      __ptext26 0D79  
                    __ptext18 0AC0                      __ptext35 0E71                      __ptext27 0ECE  
                    __ptext19 03F3                      __ptext36 02EA                      __ptext28 01E0  
                    __ptext37 0BDC                      __ptext29 0B71                      __ptext38 06F5  
                    __ptext39 0C8B              __size_of_set_cur 000A                    ?_write_str 0073  
              ?_set_underline 0070          __end_ofi1_dataUpdate 07FF                 _FloatToString 01E0  
                    _init_lcd 0C59                 __size_of_main 0021                 __size_of_utoa 007E  
                  write_str@i 0078                    _INTCONbits 000B                  ??_update_dds 007E  
                    init_ram0 0AE8                   ??_load_freq 003B                      intlevel1 0000  
              ?_FloatToString 0037              ___lwmod@dividend 0072              ___lldiv@dividend 0074  
             _frequencyUpdate 0A8F                     stringcode 080A                   _set_cur_l_1 0AAD  
              FloatToString@f 0037            __end_of_update_dds 07E2                  ??_write_char 0072  
                    utoa@base 007A                    _OPTION_REG 0081              ___lldiv@quotient 0079  
             ___lwmod@divisor 0070                      strlen@cp 0077               ___lwmod@counter 0075  
                    stringdir 080A                      stringtab 0800               ??_set_underline 0072  
                 ??_write_str 0077            __end_of_write_char 0ACA         __end_ofi1_set_cur_l_1 0AAD  
